(dp0
Vsellerphone 6022501128 sellerfax 6022501155 selleremail oasisadm apsccom
p1
F5.5213498005778385
sVparty may rely anyone basis contract estoppel
p2
F3.9160872595542187
sVsportslinecom fantasy football customize reschedule turn report
p3
F5.428568067126872
sVschedule download fail manual intervention require log
p4
F4.889044279274138
sVenronmessagingadministration enroncom delete copy message email attachment
p5
F4.047031843453398
sVdbcaps97data error dbcaps97data perform operation close database
p6
F5.070628100881553
sVdetect load schedule log message parse file
p7
F5.662849362851538
sVandor relevant affiliate may contain confidential privilege
p8
F3.9049914452991645
sVdownload fail manual intervention require log message
p9
F4.889044279274138
sVhourahead schedule download fail manual intervention require
p10
F4.235413058400472
sVinc customerphone 713 8533801 customerfax 713 6468272
p11
F5.480527806057584
sVerror dbcaps97data perform operation close database unknown
p12
F5.075062697949419
sVfinal schedule find preferred schedule detail transtype
p13
F5.223304941090511
sVcorp andor relevant affiliate may contain confidential
p14
F3.950133100963936
sVcapacityrequested 25 serviceincrement hourly tsclass firm tstype
p15
F5.571182174325714
sVevidence bind enforceable contract enron corp affiliate
p16
F4.045443280768261
sVmarketing inc customerphone 713 8533801 customerfax 713
p17
F5.480527806057584
sVipayit user training material click link http
p18
F5.593323300202928
sVmay rely anyone basis contract estoppel otherwise
p19
F3.9188805574598313
sVlog message parse file portlandwestdeskcalifornia schedulingiso final
p20
F2.9243346209455083
sVrely anyone basis contract estoppel otherwise thank
p21
F3.9216816797395433
sVyes ancsvclink na ancsvcreq na postingref 0
p22
F5.528318469893932
sVclose database error dbcaps97data perform operation close
p23
F5.053083791230644
sVna postingref 0 saleref requestref dealref negotiatedpriceflag
p24
F5.528318469893932
sVsellername azps sellerphone 6022501128 sellerfax 6022501155 selleremail
p25
F5.514429357733265
sValias dbcaps97data unknown database alias dbcaps97data error
p26
F5.075062697949419
sVoperation close database unknown database alias dbcaps97data
p27
F5.075062697949419
sV713 6468272 customeremail billrust enroncom reassignedref 0
p28
F5.507556478445503
sVrecipient please contact sender reply enron corp
p29
F4.0391141457166135
sVaffiliate may contain confidential privilege material sole
p30
F3.9049914452991645
sVaffiliateflag 0 pathname wazpsazpsazpsfourcorne345 pnpkaps230 pointofreceipt fourcorne345
p31
F5.623628649698257
sVload schedule log message parse file portlandwestdeskcalifornia
p32
F5.6871420554205825
sVcontact sender reply enron corp enronmessagingadministration enroncom
p33
F4.047031843453398
sVenforceable contract enron corp affiliate intend recipient
p34
F4.048622933685641
sVenron power marketing inc customerphone 713 8533801
p35
F5.507556478445503
sVdbcaps97data perform operation close database error dbcaps97data
p36
F5.053083791230644
sValias dbcaps97data error dbcaps97data perform operation close
p37
F5.070628100881553
sVemail property enron corp andor relevant affiliate
p38
F4.028133643233169
sVenglish news service c reuters limit 2001
p39
F5.33210780093931
sVunknown database alias dbcaps97data unknown database alias
p40
F5.075062697949419
sVintervention require log message parse file portlandwestdeskcalifornia
p41
F4.981774763525862
sVget free download msn explorer http explorermsncomintlasp
p42
F5.355364663103577
sVmessage email attachment hereto intend offer acceptance
p43
F3.909137961261013
sVauthorize receive recipient please contact sender reply
p44
F3.954471502562534
sV25 serviceincrement hourly tsclass firm tstype pointtopoint
p45
F5.571182174325714
sVancillary schedule award variance detect variance detect
p46
F5.192845733605802
sVplease visit website view today s gas
p47
F5.373169287737084
sVcustomername enron power marketing inc customerphone 713
p48
F5.507556478445503
sVvariance detect load schedule log message parse
p49
F5.662849362851538
sValias dbcaps97data unknown database alias dbcaps97data unknown
p50
F5.075062697949419
sVdatabase error dbcaps97data perform operation close database
p51
F5.053083791230644
sVancsvclink na ancsvcreq na postingref 0 saleref
p52
F5.528318469893932
sVbind enforceable contract enron corp affiliate intend
p53
F4.048622933685641
sVaffiliate intend recipient party may rely anyone
p54
F3.9174829331931935
sVrecipient party may rely anyone basis contract
p55
F3.9160872595542187
sVsellerduns 958982563 customercode epmi customerduns 848921276 affiliateflag
p56
F5.514429357733265
sV848921276 affiliateflag 0 pathname wazpsazpsazpsfourcorne345 pnpkaps230 pointofreceipt
p57
F5.623628649698257
sVapsccom customername enron power marketing inc customerphone
p58
F5.5213498005778385
sVtime ipayit user training material click link
p59
F5.593323300202928
sVpointtopoint tsperiod offpeak tswindow fix tssubclass wheel
p60
F5.571182174325714
sVdbcaps97data unknown database alias dbcaps97data error dbcaps97data
p61
F5.075062697949419
sVattachment hereto intend offer acceptance create evidence
p62
F3.911911888143738
sVfind preferred schedule detail transtype final scid
p63
F5.223304941090511
sVereports sign cbs sportslinecom fantasy football customize
p64
F5.428568067126872
sVid password ehronlinesap personnel id password first
p65
F5.695372554557098
sVproperty enron corp andor relevant affiliate may
p66
F4.0328248168090495
sVvariance detect log message parse file portlandwestdeskcalifornia
p67
F3.182620302614649
sVtssubclass wheel nerccurtailmentpriority nerc priority 1 othercurtailmentpriority
p68
F5.514429357733265
sVreuters english news service c reuters limit
p69
F5.31501336758001
sVintend recipient party may rely anyone basis
p70
F3.9160872595542187
sVdelete copy message email attachment hereto intend
p71
F3.909137961261013
sVtsclass firm tstype pointtopoint tsperiod offpeak tswindow
p72
F5.571182174325714
sVsellerfax 6022501155 selleremail oasisadm apsccom customername enron
p73
F5.5213498005778385
sVwebsite view today s gas power price
p74
F5.373169287737084
sVcustomerphone 713 8533801 customerfax 713 6468272 customeremail
p75
F5.480527806057584
sVunknown database alias dbcaps97data error dbcaps97data perform
p76
F5.075062697949419
sVdisclosure others strictly prohibit intend recipient authorize
p77
F3.911911888143738
sVegroupscom use yahoo group subject http docsyahoocominfoterms
p78
F5.434917294805531
sVcustomercode epmi customerduns 848921276 affiliateflag 0 pathname
p79
F5.480527806057584
sVpathname wazpsazpsazpsfourcorne345 pnpkaps230 pointofreceipt fourcorne345 pointofdelivery pnpkaps230
p80
F5.623628649698257
sVrelevant affiliate may contain confidential privilege material
p81
F3.9049914452991645
sVschedule log message parse file portlandwestdeskcalifornia schedulingiso
p82
F5.218163541590092
sVsellercode azps sellerduns 958982563 customercode epmi customerduns
p83
F5.514429357733265
sVlocate prefer revisedpreferred schedule match final individual
p84
F5.379175311797296
sVsole use intend recipient review use distribution
p85
F3.914693531105615
sVoffpeak tswindow fix tssubclass wheel nerccurtailmentpriority nerc
p86
F5.571182174325714
sV6022501128 sellerfax 6022501155 selleremail oasisadm apsccom customername
p87
F5.5213498005778385
sVrecipient review use distribution disclosure others strictly
p88
F3.9188805574598313
sVstrictly prohibit intend recipient authorize receive recipient
p89
F3.911911888143738
sVservice copyright c 2001 dow jones company
p90
F5.441307092904302
sVazps sellerphone 6022501128 sellerfax 6022501155 selleremail oasisadm
p91
F5.514429357733265
sVcontract enron corp affiliate intend recipient party
p92
F4.048622933685641
sVenron corp enronmessagingadministration enroncom delete copy message
p93
F4.050216559520918
sV6468272 customeremail billrust enroncom reassignedref 0 reassignedcapacity
p94
F5.507556478445503
sVfirm tstype pointtopoint tsperiod offpeak tswindow fix
p95
F5.571182174325714
sVcustomeremail billrust enroncom reassignedref 0 reassignedcapacity 0
p96
F5.507556478445503
sV958982563 customercode epmi customerduns 848921276 affiliateflag 0
p97
F5.514429357733265
sVenergy importexport schedule final schedule find preferred
p98
F5.500730513375103
sVschedule match final individual interchange schedule unable
p99
F5.379175311797296
sVcopyright c 2001 dow jones company inc
p100
F4.8853610338578415
sVdatabase alias dbcaps97data unknown database alias dbcaps97data
p101
F5.075062697949419
sVschedule final schedule find preferred schedule detail
p102
F5.25472113732389
sVacceptance create evidence bind enforceable contract enron
p103
F4.0375381012611475
sVmanual intervention require log message parse file
p104
F4.981774763525862
sVpower marketing inc customerphone 713 8533801 customerfax
p105
F5.480527806057584
sVepmi customerduns 848921276 affiliateflag 0 pathname wazpsazpsazpsfourcorne345
p106
F5.571182174325714
sVwazpsazpsazpsfourcorne345 pnpkaps230 pointofreceipt fourcorne345 pointofdelivery pnpkaps230 source
p107
F5.623628649698257
sVcopy message email attachment hereto intend offer
p108
F3.909137961261013
sVazps sellerduns 958982563 customercode epmi customerduns 848921276
p109
F5.514429357733265
sVpreconfirmed yes ancsvclink na ancsvcreq na postingref
p110
F5.528318469893932
sVtsperiod offpeak tswindow fix tssubclass wheel nerccurtailmentpriority
p111
F5.571182174325714
sVenron corp affiliate intend recipient party may
p112
F4.048622933685641
sVoasisadm apsccom customername enron power marketing inc
p113
F5.5213498005778385
sVfirst time ipayit user training material click
p114
F5.593323300202928
sVcustomerfax 713 6468272 customeremail billrust enroncom reassignedref
p115
F5.507556478445503
sVtstype pointtopoint tsperiod offpeak tswindow fix tssubclass
p116
F5.571182174325714
sVfantasy football customize reschedule turn report please
p117
F5.415989284920013
sVcreate evidence bind enforceable contract enron corp
p118
F4.043857237612626
sVlaunch ipayit click link http ipayitenroncom note
p119
F5.593323300202928
sVperform operation close database unknown database alias
p120
F5.075062697949419
sVintend offer acceptance create evidence bind enforceable
p121
F3.9077538779950745
sVemail attachment hereto intend offer acceptance create
p122
F3.911911888143738
sVsender reply enron corp enronmessagingadministration enroncom delete
p123
F4.050216559520918
sVmatch final individual interchange schedule unable assign
p124
F5.379175311797296
sVancillary schedule award variance detect log message
p125
F3.179276936076674
sVothers strictly prohibit intend recipient authorize receive
p126
F3.911911888143738
sVrevisedpreferred schedule match final individual interchange schedule
p127
F5.379175311797296
sVerror dbcaps97data perform operation close database error
p128
F5.053083791230644
sVdatabase alias dbcaps97data error dbcaps97data perform operation
p129
F5.075062697949419
sVtranstype final scid ectrt mkttype 2 transdate
p130
F5.662849362851538
sVcorp enronmessagingadministration enroncom delete copy message email
p131
F4.050216559520918
sV6022501155 selleremail oasisadm apsccom customername enron power
p132
F5.5213498005778385
sVfail manual intervention require log message parse
p133
F4.981774763525862
sV2000 dow jones company inc right reserve
p134
F4.998101656813291
sVreview use distribution disclosure others strictly prohibit
p135
F3.911911888143738
sVdatabase unknown database alias dbcaps97data unknown database
p136
F5.075062697949419
sVcontain confidential privilege material sole use intend
p137
F3.899489368145181
sVintend recipient authorize receive recipient please contact
p138
F3.909137961261013
sVnerccurtailmentpriority nerc priority 1 othercurtailmentpriority default starttime
p139
F5.480527806057584
sVmw preconfirmed yes ancsvclink na ancsvcreq na
p140
F5.571182174325714
sVdbcaps97data perform operation close database unknown database
p141
F5.075062697949419
sVrecipient authorize receive recipient please contact sender
p142
F3.909137961261013
sVvisit website view today s gas power
p143
F5.373169287737084
sVmaterial sole use intend recipient review use
p144
F3.909137961261013
sVwheel nerccurtailmentpriority nerc priority 1 othercurtailmentpriority default
p145
F5.514429357733265
sVreply enron corp enronmessagingadministration enroncom delete copy
p146
F4.050216559520918
sVoperation close database error dbcaps97data perform operation
p147
F5.053083791230644
sVerror retrieve hourahead price data process continue
p148
F4.764315352566642
sVselleremail oasisadm apsccom customername enron power marketing
p149
F5.5213498005778385
sVpostingref 0 saleref requestref dealref negotiatedpriceflag status
p150
F5.480527806057584
sVcbs sportslinecom fantasy football customize reschedule turn
p151
F5.428568067126872
sVconfidential intend solely use individual entity address
p152
F5.670881534548802
sV713 8533801 customerfax 713 6468272 customeremail billrust
p153
F5.480527806057584
sVdistribution disclosure others strictly prohibit intend recipient
p154
F3.911911888143738
sVancsvcreq na postingref 0 saleref requestref dealref
p155
F5.528318469893932
sVc 2001 dow jones company inc new
p156
F5.593323300202928
sVreceive recipient please contact sender reply enron
p157
F4.0391141457166135
sVuser id password ehronlinesap personnel id password
p158
F5.695372554557098
sVenron corp andor relevant affiliate may contain
p159
F4.0328248168090495
sVrequire log message parse file portlandwestdeskcalifornia schedulingiso
p160
F4.981774763525862
sVperform operation close database error dbcaps97data perform
p161
F5.053083791230644
sVpassword ehronlinesap personnel id password first time
p162
F5.695372554557098
sVfootball customize reschedule turn report please click
p163
F5.415989284920013
sVna ancsvcreq na postingref 0 saleref requestref
p164
F5.528318469893932
sVreceive ereports sign cbs sportslinecom fantasy football
p165
F5.428568067126872
sVcustomerduns 848921276 affiliateflag 0 pathname wazpsazpsazpsfourcorne345 pnpkaps230
p166
F5.623628649698257
sVschedule award variance detect log message parse
p167
F3.1812816143290523
sVcopyright 2000 dow jones company inc right
p168
F5.0063661666631845
sVserviceincrement hourly tsclass firm tstype pointtopoint tsperiod
p169
F5.571182174325714
sVprivilege material sole use intend recipient review
p170
F3.909137961261013
sVpriceunits mw preconfirmed yes ancsvclink na ancsvcreq
p171
F5.571182174325714
sVenroncom delete copy message email attachment hereto
p172
F4.0391141457166135
sV0 pathname wazpsazpsazpsfourcorne345 pnpkaps230 pointofreceipt fourcorne345 pointofdelivery
p173
F5.623628649698257
sVprefer revisedpreferred schedule match final individual interchange
p174
F5.379175311797296
sVimportexport schedule final schedule find preferred schedule
p175
F5.500730513375103
sVplease contact sender reply enron corp enronmessagingadministration
p176
F4.047031843453398
sVhourly tsclass firm tstype pointtopoint tsperiod offpeak
p177
F5.571182174325714
sVuse intend recipient review use distribution disclosure
p178
F3.9160872595542187
sVtswindow fix tssubclass wheel nerccurtailmentpriority nerc priority
p179
F5.514429357733265
sVschedule find preferred schedule detail transtype final
p180
F5.223304941090511
sVintend recipient review use distribution disclosure others
p181
F3.9188805574598313
sVoffer acceptance create evidence bind enforceable contract
p182
F3.9049914452991645
sVfix tssubclass wheel nerccurtailmentpriority nerc priority 1
p183
F5.514429357733265
sVprohibit intend recipient authorize receive recipient please
p184
F3.911911888143738
sVdbcaps97data unknown database alias dbcaps97data unknown database
p185
F5.075062697949419
sVtoday s gas power price news click
p186
F5.373169287737084
sVcorp affiliate intend recipient party may rely
p187
F3.969070301983687
sVview today s gas power price news
p188
F5.373169287737084
sVhereto intend offer acceptance create evidence bind
p189
F3.911911888143738
sVindividual interchange schedule unable assign deal number
p190
F5.379175311797296
sVdetect log message parse file portlandwestdeskcalifornia schedulingiso
p191
F3.182620302614649
sVconfidential privilege material sole use intend recipient
p192
F3.906371707768123
sVmay contain confidential privilege material sole use
p193
F3.899489368145181
sVaward variance detect log message parse file
p194
F3.1812816143290523
sVuse distribution disclosure others strictly prohibit intend
p195
F3.911911888143738
sVfinal individual interchange schedule unable assign deal
p196
F5.379175311797296
sVclose database unknown database alias dbcaps97data unknown
p197
F5.075062697949419
sV8533801 customerfax 713 6468272 customeremail billrust enroncom
p198
F5.507556478445503
sVsign cbs sportslinecom fantasy football customize reschedule
p199
F5.428568067126872
s.