(dp0
Vfinal individu interchang schedul unabl
p1
F5.3269106777038875
sVprohibit intend recipi author receiv
p2
F3.8596472540503295
sVenron corp affili intend recipi
p3
F3.9963582995922318
sVretriev hourahead price data process
p4
F4.712050718473233
sVreview use distribut disclosur other
p5
F3.8568733271676043
sVnorth america corp 1400 smith
p6
F5.218542640982106
sVorigin messag nelson michel sent
p7
F5.24594161517022
sVc 2001 dow jone compani
p8
F4.833096399764433
sVpreconfirm ye ancsvclink na ancsvcreq
p9
F5.434952160114971
sVrecipi review use distribut disclosur
p10
F3.86382262546081
sVclose databas error dbcaps97data perform
p11
F5.000819157137235
sVerror dbcaps97data perform oper close
p12
F5.000819157137235
sVdownload msn explor http explorermsncomintlasp
p13
F5.297234909557771
sVsent monday octob 22 2001
p14
F5.087040332584364
sVoffer accept creat evid bind
p15
F3.854107073674714
sVsole use intend recipi review
p16
F3.8554892439016655
sVenergi importexport schedul final schedul
p17
F5.448465879281694
sVorigin messag kitchen louis sent
p18
F4.050337060514801
sVsent tuesday novemb 20 2001
p19
F5.279843166845901
sVattach hereto intend offer accept
p20
F3.8568733271676043
sVpleas contact sender repli enron
p21
F3.9868495116232046
sVprioriti 1 othercurtailmentprior default starttim
p22
F5.428263171964175
sVuse yahoo group subject http
p23
F5.120778472216214
sVmay reli anyon basi contract
p24
F3.8527268112057556
sVvinc forward vinc j kaminskihouect
p25
F5.005176462506191
sVintend recipi author receiv recipi
p26
F3.8568733271676043
sVcorp enronmessagingadministr enroncom delet copi
p27
F3.9979519254275098
sVconfidenti privileg materi sole use
p28
F3.8444850063106517
sVreceiv ereport sign cb sportslinecom
p29
F5.376303433033463
sVservic copyright c 2001 dow
p30
F5.389042458810893
sV2001 dow jone compani inc
p31
F4.8221273683938595
sVpostingref 0 saleref requestref dealref
p32
F5.428263171964175
sVfinal schedul found prefer schedul
p33
F5.171040306997102
sVanyon basi contract estoppel otherwis
p34
F3.866615923366423
sVenglish news servic c reuter
p35
F5.251512660219675
sVancillari schedul award varianc detect
p36
F3.002281200826204
sVimportexport schedul final schedul found
p37
F5.448465879281694
sVschedul final schedul found prefer
p38
F5.202456503230481
sVcopyright 2001 commissionercom inc sportslinecom
p39
F5.191874393899944
sVproperti enron corp andor relev
p40
F3.9758690091397604
sVrepli enron corp enronmessagingadministr enroncom
p41
F3.9947672093599897
sVevid bind enforc contract enron
p42
F3.9836999027203084
sVvisit websit view today s
p43
F5.320904653643676
sVhereto intend offer accept creat
p44
F3.8596472540503295
sVintend recipi review use distribut
p45
F3.8624288970122063
sVga power price news click
p46
F5.320904653643676
sVinc customerphon 713 8533801 customerfax
p47
F5.428263171964175
sVsent monday novemb 19 2001
p48
F5.082312191388418
sVaffili intend recipi parti may
p49
F3.865218299099785
sVepmi customerdun 848921276 affiliateflag 0
p50
F5.428263171964175
sVemail attach hereto intend offer
p51
F3.8568733271676043
sVintervent requir log messag pars
p52
F4.929510129432454
sVschedul log messag pars file
p53
F5.140581099512394
sVnerccurtailmentprior nerc prioriti 1 othercurtailmentprior
p54
F5.428263171964175
sVfound prefer schedul detail transtyp
p55
F5.171040306997102
sVsender repli enron corp enronmessagingadministr
p56
F3.9947672093599897
sVpower market inc customerphon 713
p57
F5.428263171964175
sVdbcaps97data unknown databas alia dbcaps97data
p58
F5.02279806385601
sVsent wednesday octob 24 2001
p59
F5.279843166845901
sVrequir log messag pars file
p60
F4.929510129432454
sVrecipi author receiv recipi pleas
p61
F3.8568733271676043
sVcreat evid bind enforc contract
p62
F3.8513484512356344
sVparti may reli anyon basi
p63
F3.86382262546081
sVvarianc detect log messag pars
p64
F3.129016980235644
sV2000 dow jone compani inc
p65
F4.941730240767228
sVdbcaps97data perform oper close databas
p66
F5.000819157137235
sVsent wednesday octob 17 2001
p67
F5.421618629245506
sVjone compani inc right reserv
p68
F4.751923109720611
sVdistribut disclosur other strictli prohibit
p69
F3.8596472540503295
sVoper close databas unknown databas
p70
F5.02279806385601
sVcb sportslinecom fantasi footbal custom
p71
F5.376303433033463
sVsaleref requestref dealref negotiatedpriceflag statu
p72
F5.428263171964175
sV713 8533801 customerfax 713 6468272
p73
F5.428263171964175
sVandor relev affili may contain
p74
F3.8527268112057556
sVoper close databas error dbcaps97data
p75
F5.000819157137235
sVenroncom delet copi messag email
p76
F3.9868495116232046
sVcustomerphon 713 8533801 customerfax 713
p77
F5.428263171964175
sVuse intend recipi review use
p78
F3.8554892439016655
sVintend offer accept creat evid
p79
F3.8568733271676043
sVreview act upon request request
p80
F5.345148265253668
sVschedul detail transtyp final scid
p81
F5.171040306997102
sVrecipi parti may reli anyon
p82
F3.86382262546081
sVenforc contract enron corp affili
p83
F3.9931786466748522
sVvinc j kaminskihouect cc subject
p84
F4.833096399764433
sVcustomerfax 713 6468272 customeremail billrust
p85
F5.428263171964175
sVreceiv recipi pleas contact sender
p86
F3.854107073674714
sVnerc prioriti 1 othercurtailmentprior default
p87
F5.428263171964175
sVdetect log messag pars file
p88
F3.129016980235644
sVpm vinc j kaminskihouect cc
p89
F5.3269106777038875
sVsent tuesday octob 23 2001
p90
F5.33295299215985
sVmatch final individu interchang schedul
p91
F5.3269106777038875
sVschedul award varianc detect varianc
p92
F5.140581099512394
sVintend recipi parti may reli
p93
F3.8610371083393837
sVdow jone compani inc right
p94
F4.751923109720611
sVprefer schedul detail transtyp final
p95
F5.171040306997102
sVschedul found prefer schedul detail
p96
F5.171040306997102
sVsent friday octob 26 2001
p97
F5.401945863646802
sVcopyright 2000 dow jone compani
p98
F4.9541015325697755
sVrevisedpref schedul match final individu
p99
F5.3269106777038875
sVschedul download fail manual intervent
p100
F4.1308000245509
sVcustomercod epmi customerdun 848921276 affiliateflag
p101
F5.428263171964175
sVinterchang schedul unabl assign deal
p102
F5.3269106777038875
sVsent thursday octob 25 2001
p103
F5.279843166845901
sV0 saleref requestref dealref negotiatedpriceflag
p104
F5.428263171964175
sVbasi contract estoppel otherwis thank
p105
F3.866615923366423
sVwholesal servic 1400 smith street
p106
F5.448465879281694
sVlog messag pars file portlandwestdeskcalifornia
p107
F2.8720699868520994
sVlocat prefer revisedpref schedul match
p108
F5.3269106777038875
sVcustom reschedul turn report pleas
p109
F5.363724650826604
sVhourahead schedul download fail manual
p110
F4.183148424307063
sVview today s ga power
p111
F5.320904653643676
sVunknown databas alia dbcaps97data error
p112
F5.02279806385601
sVindividu interchang schedul unabl assign
p113
F5.3269106777038875
sVcopi messag email attach hereto
p114
F3.854107073674714
sVs ga power price news
p115
F5.320904653643676
sVpars file portlandwestdeskcalifornia schedulingiso final
p116
F2.870519198223908
sVrecipi pleas contact sender repli
p117
F3.843117952099119
sVmanual intervent requir log messag
p118
F4.836779645180729
sValia dbcaps97data error dbcaps97data perform
p119
F5.018363466788145
sVhourahead price data process continu
p120
F4.712050718473233
sVservic c reuter limit 2001
p121
F5.268414471022279
sVsent blackberri wireless handheld wwwblackberrynet
p122
F4.796991395122316
sVmay contain confidenti privileg materi
p123
F3.8458539319179934
sVmessag email attach hereto intend
p124
F3.8568733271676043
sVenron corp andor relev affili
p125
F3.9758690091397604
sVfail manual intervent requir log
p126
F4.836779645180729
sVmateri sole use intend recipi
p127
F3.854107073674714
sVdisclosur other strictli prohibit intend
p128
F3.8596472540503295
sVenronmessagingadministr enroncom delet copi messag
p129
F3.9947672093599897
sVreuter english news servic c
p130
F5.24594161517022
sValia dbcaps97data unknown databas alia
p131
F5.02279806385601
sVegroupscom use yahoo group subject
p132
F5.279843166845901
sVperform oper close databas unknown
p133
F5.02279806385601
sVreschedul turn report pleas click
p134
F5.363724650826604
sVbind enforc contract enron corp
p135
F3.991592603519217
sVget free download msn explor
p136
F5.031726694600311
sVfantasi footbal custom reschedul turn
p137
F5.363724650826604
sVdatabas error dbcaps97data perform oper
p138
F5.000819157137235
sVnews servic c reuter limit
p139
F5.251512660219675
sVdatabas unknown databas alia dbcaps97data
p140
F5.02279806385601
sVcontract enron corp affili intend
p141
F3.9963582995922318
sVgmt0600 central time us canada
p142
F5.351302130828047
sVdownload fail manual intervent requir
p143
F4.1308000245509
sVunknown databas alia dbcaps97data unknown
p144
F5.02279806385601
sVerror retriev hourahead price data
p145
F4.712050718473233
sVmessag pars file portlandwestdeskcalifornia schedulingiso
p146
F2.8720699868520994
sVpleas let know question thank
p147
F5.389042458810893
sVschedul award varianc detect log
p148
F3.1270123019832656
sVfree download msn explor http
p149
F5.031726694600311
sVcontact sender repli enron corp
p150
F3.9868495116232046
sVclose databas unknown databas alia
p151
F5.02279806385601
sVprivileg materi sole use intend
p152
F3.8444850063106517
sVschedul unabl assign deal number
p153
F5.3269106777038875
sVperform oper close databas error
p154
F5.000819157137235
sVcorp affili intend recipi parti
p155
F3.916805667890278
sVcorp andor relev affili may
p156
F3.897868466870527
sVprefer revisedpref schedul match final
p157
F5.3269106777038875
sVdbcaps97data error dbcaps97data perform oper
p158
F5.018363466788145
sVdatabas alia dbcaps97data error dbcaps97data
p159
F5.02279806385601
sVaward varianc detect varianc detect
p160
F5.140581099512394
sVuse distribut disclosur other strictli
p161
F3.8568733271676043
sVrelev affili may contain confidenti
p162
F3.8527268112057556
sVcontain confidenti privileg materi sole
p163
F3.847224734051772
sVereport sign cb sportslinecom fantasi
p164
F5.376303433033463
sVother strictli prohibit intend recipi
p165
F3.8596472540503295
sVenron corp enronmessagingadministr enroncom delet
p166
F3.9979519254275098
sVyahoo group subject http docsyahoocominfoterms
p167
F5.120778472216214
sVsent monday octob 29 2001
p168
F5.421618629245506
sVsign cb sportslinecom fantasi footbal
p169
F5.376303433033463
sVorigin messag maggi mike sent
p170
F4.885938881138813
sV8533801 customerfax 713 6468272 customeremail
p171
F5.428263171964175
sVcopyright c 2001 dow jone
p172
F4.833096399764433
sVaccept creat evid bind enforc
p173
F3.854107073674714
sVdatabas alia dbcaps97data unknown databas
p174
F5.02279806385601
sVcustomerdun 848921276 affiliateflag 0 pathnam
p175
F5.428263171964175
sVstrictli prohibit intend recipi author
p176
F3.8568733271676043
sVact upon request request id
p177
F5.345148265253668
sVwebsit view today s ga
p178
F5.320904653643676
sVemail properti enron corp andor
p179
F3.9758690091397604
sVsportslinecom fantasi footbal custom reschedul
p180
F5.376303433033463
sVsent monday novemb 26 2001
p181
F5.428263171964175
sVtoday s ga power price
p182
F5.320904653643676
sVmarket inc customerphon 713 8533801
p183
F5.428263171964175
sVfootbal custom reschedul turn report
p184
F5.363724650826604
sVreli anyon basi contract estoppel
p185
F3.854107073674714
sVsent thursday octob 18 2001
p186
F5.415017945214154
sVdelet copi messag email attach
p187
F3.8527268112057556
sVaffili may contain confidenti privileg
p188
F3.8513484512356344
sVpleas visit websit view today
p189
F5.320904653643676
sVaward varianc detect log messag
p190
F3.1270123019832656
sVauthor receiv recipi pleas contact
p191
F3.8554892439016655
sVschedul match final individu interchang
p192
F5.3269106777038875
s.