(dp0
Vcontain confidential privilege material sole use intend recipient review use
p1
F3.911911888143738
sVimportexport schedule final schedule find preferred schedule detail transtype final
p2
F5.500730513375103
sVenron corp andor relevant affiliate may contain confidential privilege material
p3
F4.0328248168090495
sVdisclosure others strictly prohibit intend recipient authorize receive recipient please
p4
F3.911911888143738
sVprivilege material sole use intend recipient review use distribution disclosure
p5
F3.9160872595542187
sVoperation close database error dbcaps97data perform operation close database unknown
p6
F5.075062697949419
sVdatabase alias dbcaps97data unknown database alias dbcaps97data unknown database alias
p7
F5.075062697949419
sVoperation close database unknown database alias dbcaps97data unknown database alias
p8
F5.075062697949419
sVdatabase unknown database alias dbcaps97data unknown database alias dbcaps97data error
p9
F5.075062697949419
sVrecipient party may rely anyone basis contract estoppel otherwise thank
p10
F3.9216816797395433
sVvisit website view today s gas power price news click
p11
F5.373169287737084
sVacceptance create evidence bind enforceable contract enron corp affiliate intend
p12
F4.048622933685641
sVeurope european account payable 442077837520 asiapacific sydney account payable 61292292336
p13
F5.737572909047475
sV713 3454727 europe european account payable 442077837520 asiapacific sydney account
p14
F5.737572909047475
sVvariance detect load schedule log message parse file portlandwestdeskcalifornia schedulingiso
p15
F5.6871420554205825
sVenron corp affiliate intend recipient party may rely anyone basis
p16
F4.048622933685641
sVerror dbcaps97data perform operation close database unknown database alias dbcaps97data
p17
F5.075062697949419
sVpassword first time ipayit user training material click link http
p18
F5.746230971790589
sVpower marketing inc customerphone 713 8533801 customerfax 713 6468272 customeremail
p19
F5.480527806057584
sVdetect variance detect load schedule log message parse file portlandwestdeskcalifornia
p20
F5.772664228858745
sVdbcaps97data unknown database alias dbcaps97data unknown database alias dbcaps97data unknown
p21
F5.238889672107209
sVtswindow fix tssubclass wheel nerccurtailmentpriority nerc priority 1 othercurtailmentpriority default
p22
F5.514429357733265
sVrelevant affiliate may contain confidential privilege material sole use intend
p23
F3.9049914452991645
sVclose database error dbcaps97data perform operation close database unknown database
p24
F5.075062697949419
sVdetect load schedule log message parse file portlandwestdeskcalifornia schedulingiso final
p25
F5.6871420554205825
sVstrictly prohibit intend recipient authorize receive recipient please contact sender
p26
F3.911911888143738
sVfail manual intervention require log message parse file portlandwestdeskcalifornia schedulingiso
p27
F4.981774763525862
sVoperation close database error dbcaps97data perform operation close database error
p28
F5.102091370337338
sVprohibit intend recipient authorize receive recipient please contact sender reply
p29
F3.9573742622204953
sVhereto intend offer acceptance create evidence bind enforceable contract enron
p30
F4.040692678009663
sVipayitenroncom note ipayit user id password ehronlinesap personnel id password
p31
F5.746230971790589
sValias dbcaps97data error dbcaps97data perform operation close database unknown database
p32
F5.075062697949419
sV958982563 customercode epmi customerduns 848921276 affiliateflag 0 pathname wazpsazpsazpsfourcorne345 pnpkaps230
p33
F5.623628649698257
sVisc call center 713 3454727 europe european account payable 442077837520
p34
F5.737572909047475
sVhourly tsclass firm tstype pointtopoint tsperiod offpeak tswindow fix tssubclass
p35
F5.571182174325714
sVuser id password ehronlinesap personnel id password first time ipayit
p36
F5.746230971790589
sVdbcaps97data error dbcaps97data perform operation close database error dbcaps97data perform
p37
F5.070628100881553
sVyes ancsvclink na ancsvcreq na postingref 0 saleref requestref dealref
p38
F5.528318469893932
sV25 serviceincrement hourly tsclass firm tstype pointtopoint tsperiod offpeak tswindow
p39
F5.571182174325714
sVdatabase error dbcaps97data perform operation close database error dbcaps97data perform
p40
F5.1112657466133795
sVcreate evidence bind enforceable contract enron corp affiliate intend recipient
p41
F4.048622933685641
sV713 8533801 customerfax 713 6468272 customeremail billrust enroncom reassignedref 0
p42
F5.507556478445503
sVazps sellerduns 958982563 customercode epmi customerduns 848921276 affiliateflag 0 pathname
p43
F5.514429357733265
sVazps sellerphone 6022501128 sellerfax 6022501155 selleremail oasisadm apsccom customername enron
p44
F5.5213498005778385
sVuse distribution disclosure others strictly prohibit intend recipient authorize receive
p45
F3.911911888143738
sVintend recipient authorize receive recipient please contact sender reply enron
p46
F4.0391141457166135
sVsole use intend recipient review use distribution disclosure others strictly
p47
F3.9188805574598313
sVnote ipayit user id password ehronlinesap personnel id password first
p48
F5.746230971790589
sVenronmessagingadministration enroncom delete copy message email attachment hereto intend offer
p49
F4.047031843453398
sVancillary schedule award variance detect variance detect load schedule log
p50
F5.754964651759344
sVipayit user id password ehronlinesap personnel id password first time
p51
F5.746230971790589
sVothers strictly prohibit intend recipient authorize receive recipient please contact
p52
F3.911911888143738
sVid password ehronlinesap personnel id password first time ipayit user
p53
F5.746230971790589
sVpointtopoint tsperiod offpeak tswindow fix tssubclass wheel nerccurtailmentpriority nerc priority
p54
F5.571182174325714
sVdbcaps97data error dbcaps97data perform operation close database unknown database alias
p55
F5.075062697949419
sVandor relevant affiliate may contain confidential privilege material sole use
p56
F3.9049914452991645
sVserviceincrement hourly tsclass firm tstype pointtopoint tsperiod offpeak tswindow fix
p57
F5.571182174325714
sVdatabase alias dbcaps97data unknown database alias dbcaps97data error dbcaps97data perform
p58
F5.075062697949419
sVrevisedpreferred schedule match final individual interchange schedule unable assign deal
p59
F5.379175311797296
sVenron corp enronmessagingadministration enroncom delete copy message email attachment hereto
p60
F4.050216559520918
sVjones energy service copyright c 2001 dow jones company inc
p61
F5.720478475688174
sVdatabase alias dbcaps97data error dbcaps97data perform operation close database error
p62
F5.075062697949419
sVdbcaps97data perform operation close database unknown database alias dbcaps97data unknown
p63
F5.075062697949419
sVsign cbs sportslinecom fantasy football customize reschedule turn report please
p64
F5.428568067126872
sVrecipient review use distribution disclosure others strictly prohibit intend recipient
p65
F3.9216816797395433
sVreply enron corp enronmessagingadministration enroncom delete copy message email attachment
p66
F4.050216559520918
sVcustomerfax 713 6468272 customeremail billrust enroncom reassignedref 0 reassignedcapacity 0
p67
F5.507556478445503
sVplease contact sender reply enron corp enronmessagingadministration enroncom delete copy
p68
F4.050216559520918
sVerror retrieve hourahead price data process continue energy importexport schedule
p69
F5.809031873029619
sVenroncom delete copy message email attachment hereto intend offer acceptance
p70
F4.0391141457166135
sVconfidential privilege material sole use intend recipient review use distribution
p71
F3.9160872595542187
sVschedule final schedule find preferred schedule detail transtype final scid
p72
F5.25472113732389
sVdbcaps97data perform operation close database error dbcaps97data perform operation close
p73
F5.053083791230644
sVemail property enron corp andor relevant affiliate may contain confidential
p74
F4.0328248168090495
sVnorth america isc call center 713 3454727 europe european account
p75
F5.737572909047475
sV6022501128 sellerfax 6022501155 selleremail oasisadm apsccom customername enron power marketing
p76
F5.5213498005778385
sVsender reply enron corp enronmessagingadministration enroncom delete copy message email
p77
F4.050216559520918
sVdatabase unknown database alias dbcaps97data unknown database alias dbcaps97data unknown
p78
F5.075062697949419
sVneed help north america isc call center 713 3454727 europe
p79
F5.737572909047475
sVid password first time ipayit user training material click link
p80
F5.746230971790589
sVdownload fail manual intervention require log message parse file portlandwestdeskcalifornia
p81
F4.981774763525862
sVtstype pointtopoint tsperiod offpeak tswindow fix tssubclass wheel nerccurtailmentpriority nerc
p82
F5.571182174325714
sVconfidential intend solely use individual entity address receive email error
p83
F5.799815217924696
sValias dbcaps97data unknown database alias dbcaps97data unknown database alias dbcaps97data
p84
F5.075062697949419
sVmanual intervention require log message parse file portlandwestdeskcalifornia schedulingiso final
p85
F4.981774763525862
sVunknown database alias dbcaps97data error dbcaps97data perform operation close database
p86
F5.075062697949419
sVcall center 713 3454727 europe european account payable 442077837520 asiapacific
p87
F5.737572909047475
sVdbcaps97data unknown database alias dbcaps97data error dbcaps97data perform operation close
p88
F5.075062697949419
sVenforceable contract enron corp affiliate intend recipient party may rely
p89
F4.048622933685641
sVancsvclink na ancsvcreq na postingref 0 saleref requestref dealref negotiatedpriceflag
p90
F5.528318469893932
sVschedule match final individual interchange schedule unable assign deal number
p91
F5.379175311797296
sVcustomerphone 713 8533801 customerfax 713 6468272 customeremail billrust enroncom reassignedref
p92
F5.507556478445503
sVaffiliate may contain confidential privilege material sole use intend recipient
p93
F3.914693531105615
sVcontact sender reply enron corp enronmessagingadministration enroncom delete copy message
p94
F4.050216559520918
sVrecipient please contact sender reply enron corp enronmessagingadministration enroncom delete
p95
F4.050216559520918
sVaward variance detect variance detect load schedule log message parse
p96
F5.754964651759344
sVdatabase error dbcaps97data perform operation close database unknown database alias
p97
F5.075062697949419
sVaffiliateflag 0 pathname wazpsazpsazpsfourcorne345 pnpkaps230 pointofreceipt fourcorne345 pointofdelivery pnpkaps230 source
p98
F5.623628649698257
sVrecipient authorize receive recipient please contact sender reply enron corp
p99
F4.0391141457166135
sV848921276 affiliateflag 0 pathname wazpsazpsazpsfourcorne345 pnpkaps230 pointofreceipt fourcorne345 pointofdelivery pnpkaps230
p100
F5.623628649698257
sV3454727 europe european account payable 442077837520 asiapacific sydney account payable
p101
F5.737572909047475
sVfix tssubclass wheel nerccurtailmentpriority nerc priority 1 othercurtailmentpriority default starttime
p102
F5.514429357733265
sV8533801 customerfax 713 6468272 customeremail billrust enroncom reassignedref 0 reassignedcapacity
p103
F5.507556478445503
sVerror dbcaps97data perform operation close database error dbcaps97data perform operation
p104
F5.053083791230644
sVmessage email attachment hereto intend offer acceptance create evidence bind
p105
F3.911911888143738
sVinc customerphone 713 8533801 customerfax 713 6468272 customeremail billrust enroncom
p106
F5.507556478445503
sVipayit click link http ipayitenroncom note ipayit user id password
p107
F5.746230971790589
sVuse intend recipient review use distribution disclosure others strictly prohibit
p108
F3.9216816797395433
sVtsperiod offpeak tswindow fix tssubclass wheel nerccurtailmentpriority nerc priority 1
p109
F5.571182174325714
sVproperty enron corp andor relevant affiliate may contain confidential privilege
p110
F4.0328248168090495
sVdelete copy message email attachment hereto intend offer acceptance create
p111
F3.911911888143738
sVenergy importexport schedule final schedule find preferred schedule detail transtype
p112
F5.500730513375103
sVhourahead schedule download fail manual intervention require log message parse
p113
F5.0022253739971525
sValias dbcaps97data unknown database alias dbcaps97data error dbcaps97data perform operation
p114
F5.075062697949419
sVoasisadm apsccom customername enron power marketing inc customerphone 713 8533801
p115
F5.5213498005778385
sVlink http ipayitenroncom note ipayit user id password ehronlinesap personnel
p116
F5.746230971790589
sVna ancsvcreq na postingref 0 saleref requestref dealref negotiatedpriceflag status
p117
F5.528318469893932
sVmay contain confidential privilege material sole use intend recipient review
p118
F3.911911888143738
sVintend offer acceptance create evidence bind enforceable contract enron corp
p119
F4.047031843453398
sVcontract enron corp affiliate intend recipient party may rely anyone
p120
F4.048622933685641
sVunknown database alias dbcaps97data unknown database alias dbcaps97data unknown database
p121
F5.075062697949419
sVepmi customerduns 848921276 affiliateflag 0 pathname wazpsazpsazpsfourcorne345 pnpkaps230 pointofreceipt fourcorne345
p122
F5.623628649698257
sVmaterial sole use intend recipient review use distribution disclosure others
p123
F3.9188805574598313
sVaward variance detect log message parse file portlandwestdeskcalifornia schedulingiso final
p124
F3.182620302614649
sVsellername azps sellerphone 6022501128 sellerfax 6022501155 selleremail oasisadm apsccom customername
p125
F5.5213498005778385
sVhttp ipayitenroncom note ipayit user id password ehronlinesap personnel id
p126
F5.746230971790589
sV6022501155 selleremail oasisadm apsccom customername enron power marketing inc customerphone
p127
F5.5213498005778385
sVehronlinesap personnel id password first time ipayit user training material
p128
F5.746230971790589
sVintend recipient review use distribution disclosure others strictly prohibit intend
p129
F3.9216816797395433
sVauthorize receive recipient please contact sender reply enron corp enronmessagingadministration
p130
F4.047031843453398
sVfirm tstype pointtopoint tsperiod offpeak tswindow fix tssubclass wheel nerccurtailmentpriority
p131
F5.571182174325714
sVcustomercode epmi customerduns 848921276 affiliateflag 0 pathname wazpsazpsazpsfourcorne345 pnpkaps230 pointofreceipt
p132
F5.623628649698257
sVereports sign cbs sportslinecom fantasy football customize reschedule turn report
p133
F5.428568067126872
sVreceive recipient please contact sender reply enron corp enronmessagingadministration enroncom
p134
F4.047031843453398
sVcorp enronmessagingadministration enroncom delete copy message email attachment hereto intend
p135
F4.050216559520918
sVenron power marketing inc customerphone 713 8533801 customerfax 713 6468272
p136
F5.507556478445503
sVdatabase alias dbcaps97data error dbcaps97data perform operation close database unknown
p137
F5.075062697949419
sVunknown database alias dbcaps97data unknown database alias dbcaps97data error dbcaps97data
p138
F5.075062697949419
sVintend recipient party may rely anyone basis contract estoppel otherwise
p139
F3.9188805574598313
sVpreconfirmed yes ancsvclink na ancsvcreq na postingref 0 saleref requestref
p140
F5.528318469893932
sVevidence bind enforceable contract enron corp affiliate intend recipient party
p141
F4.048622933685641
sVvariance detect variance detect load schedule log message parse file
p142
F5.754964651759344
sVperform operation close database unknown database alias dbcaps97data unknown database
p143
F5.075062697949419
sVcorp affiliate intend recipient party may rely anyone basis contract
p144
F3.969070301983687
sVlocate prefer revisedpreferred schedule match final individual interchange schedule unable
p145
F5.379175311797296
sVreview use distribution disclosure others strictly prohibit intend recipient authorize
p146
F3.911911888143738
sVoffer acceptance create evidence bind enforceable contract enron corp affiliate
p147
F4.045443280768261
sVcbs sportslinecom fantasy football customize reschedule turn report please click
p148
F5.428568067126872
sVsellerfax 6022501155 selleremail oasisadm apsccom customername enron power marketing inc
p149
F5.5213498005778385
sVemail attachment hereto intend offer acceptance create evidence bind enforceable
p150
F3.911911888143738
sVcopy message email attachment hereto intend offer acceptance create evidence
p151
F3.911911888143738
sVsellerphone 6022501128 sellerfax 6022501155 selleremail oasisadm apsccom customername enron power
p152
F5.5213498005778385
sVattachment hereto intend offer acceptance create evidence bind enforceable contract
p153
F3.911911888143738
sVpersonnel id password first time ipayit user training material click
p154
F5.746230971790589
sVcorp andor relevant affiliate may contain confidential privilege material sole
p155
F3.950133100963936
sVcapacityrequested 25 serviceincrement hourly tsclass firm tstype pointtopoint tsperiod offpeak
p156
F5.571182174325714
sVclick link http ipayitenroncom note ipayit user id password ehronlinesap
p157
F5.746230971790589
sVselleremail oasisadm apsccom customername enron power marketing inc customerphone 713
p158
F5.5213498005778385
sVcenter 713 3454727 europe european account payable 442077837520 asiapacific sydney
p159
F5.737572909047475
sVplease visit website view today s gas power price news
p160
F5.373169287737084
sVsellercode azps sellerduns 958982563 customercode epmi customerduns 848921276 affiliateflag 0
p161
F5.514429357733265
sVcustomerduns 848921276 affiliateflag 0 pathname wazpsazpsazpsfourcorne345 pnpkaps230 pointofreceipt fourcorne345 pointofdelivery
p162
F5.623628649698257
sVamerica isc call center 713 3454727 europe european account payable
p163
F5.737572909047475
sVschedule award variance detect log message parse file portlandwestdeskcalifornia schedulingiso
p164
F3.182620302614649
sVhelp north america isc call center 713 3454727 europe european
p165
F5.737572909047475
sVprefer revisedpreferred schedule match final individual interchange schedule unable assign
p166
F5.379175311797296
sVoffpeak tswindow fix tssubclass wheel nerccurtailmentpriority nerc priority 1 othercurtailmentpriority
p167
F5.571182174325714
sVancillary schedule award variance detect log message parse file portlandwestdeskcalifornia
p168
F3.182620302614649
sVsellerduns 958982563 customercode epmi customerduns 848921276 affiliateflag 0 pathname wazpsazpsazpsfourcorne345
p169
F5.571182174325714
sVintend solely use individual entity address receive email error please
p170
F5.790682734361423
sVmw preconfirmed yes ancsvclink na ancsvcreq na postingref 0 saleref
p171
F5.571182174325714
sVapsccom customername enron power marketing inc customerphone 713 8533801 customerfax
p172
F5.5213498005778385
sVmarketing inc customerphone 713 8533801 customerfax 713 6468272 customeremail billrust
p173
F5.480527806057584
sVdbcaps97data unknown database alias dbcaps97data unknown database alias dbcaps97data error
p174
F5.075062697949419
sVreceive ereports sign cbs sportslinecom fantasy football customize reschedule turn
p175
F5.428568067126872
sVschedule award variance detect variance detect load schedule log message
p176
F5.754964651759344
sVschedule download fail manual intervention require log message parse file
p177
F4.981774763525862
sVdow jones energy service copyright c 2001 dow jones company
p178
F5.720478475688174
sVbind enforceable contract enron corp affiliate intend recipient party may
p179
F4.048622933685641
sVperform operation close database error dbcaps97data perform operation close database
p180
F5.053083791230644
sVcustomername enron power marketing inc customerphone 713 8533801 customerfax 713
p181
F5.507556478445503
sVdistribution disclosure others strictly prohibit intend recipient authorize receive recipient
p182
F3.911911888143738
sVaffiliate intend recipient party may rely anyone basis contract estoppel
p183
F3.9174829331931935
sVpassword ehronlinesap personnel id password first time ipayit user training
p184
F5.746230971790589
sVclose database unknown database alias dbcaps97data unknown database alias dbcaps97data
p185
F5.075062697949419
sVlaunch ipayit click link http ipayitenroncom note ipayit user id
p186
F5.746230971790589
sValias dbcaps97data error dbcaps97data perform operation close database error dbcaps97data
p187
F5.070628100881553
sVclose database error dbcaps97data perform operation close database error dbcaps97data
p188
F5.1112657466133795
sVpriceunits mw preconfirmed yes ancsvclink na ancsvcreq na postingref 0
p189
F5.571182174325714
sVtsclass firm tstype pointtopoint tsperiod offpeak tswindow fix tssubclass wheel
p190
F5.571182174325714
s.