(dp0
Vaward varianc
p1
F3.002281200826204
sVcontact sender
p2
F3.7198853116751707
sVprivileg materi
p3
F3.783458115692783
sVnorth america
p4
F3.073718340039418
sVbasi contract
p5
F3.828202421342671
sVsent friday
p6
F2.9720989910418285
sVorigin messag
p7
F1.363461856549049
sVmake sure
p8
F3.484259601179443
sVfile portlandwestdeskcalifornia
p9
F2.8700028026534343
sVmay contain
p10
F3.557487162417895
sVenforc contract
p11
F3.8390279668475937
sVsend email
p12
F3.832248279862215
sVpars file
p13
F2.8669100166829904
sVfeel free
p14
F3.6866280899186883
sVrelev affili
p15
F3.8444850063106517
sVpleas contact
p16
F2.6848458270246733
sVstart date
p17
F2.6737535631242992
sVlog messag
p18
F2.8541253884482316
sVsent tuesday
p19
F2.773145034198732
sVbind enforc
p20
F3.8458539319179934
sVcontain confidenti
p21
F3.6123532425038367
sVemail address
p22
F3.61670107543994
sVtoday s
p23
F3.7235150797257495
sVdelet copi
p24
F3.783458115692783
sVwo nt
p25
F3.837668347331554
sVhourahead hour
p26
F2.74405039367582
sVintend offer
p27
F3.837668347331554
sVvice presid
p28
F3.80033067689391
sVattach file
p29
F3.5064505744879217
sVenron corp
p30
F3.222188979350973
sVsee attach
p31
F3.1727696865039796
sVrisk manag
p32
F3.6156123437047434
sVconfidenti privileg
p33
F3.751789858193916
sVsubject fw
p34
F2.7973340247994583
sVnext week
p35
F3.1811907889003876
sVdetect log
p36
F3.1270123019832656
sVpleas find
p37
F3.722303692539452
sVpleas let
p38
F2.3793061371728856
sVpleas see
p39
F3.7381673565126197
sVandor relev
p40
F3.8444850063106517
sVoffer accept
p41
F3.8241728658566694
sVmessag email
p42
F3.821495488085953
sVancillari schedul
p43
F3.002281200826204
sVmateri sole
p44
F3.8444850063106517
sVsent thursday
p45
F2.9356088353853482
sVschedul award
p46
F3.002281200826204
sVknow question
p47
F3.7090743955709553
sVreview use
p48
F3.8082150804180586
sVrecipi author
p49
F3.834954641459958
sVprohibit intend
p50
F3.7964116646931743
sVmay reli
p51
F3.8458539319179934
sVstrictli prohibit
p52
F3.57405068808957
sVweb site
p53
F3.8268574312273387
sVj kaminskihouect
p54
F3.7247279361509587
sVparti may
p55
F3.8082150804180586
sVkitchen louis
p56
F3.6623914736882472
sVpower market
p57
F3.80033067689391
sVlast year
p58
F3.7555375202941557
sVvarianc detect
p59
F3.002281200826204
sVpleas call
p60
F3.00878432749863
sVreceiv email
p61
F3.8055800327800537
sVca nt
p62
F3.436742511656809
sVuse distribut
p63
F3.8308978407643437
sVquestion pleas
p64
F3.379280837769047
sVmonday octob
p65
F3.751789858193916
sVnt know
p66
F3.834954641459958
sVattach hereto
p67
F3.821495488085953
sVaffili may
p68
F3.8390279668475937
sVlook forward
p69
F3.305602511164362
sVwould like
p70
F2.2890079216580084
sVmessag pars
p71
F2.8684552140030566
sVemail properti
p72
F3.8458539319179934
sVsent wednesday
p73
F2.781143194925565
sVlast week
p74
F3.2354929449773357
sVsender repli
p75
F3.792507951212701
sVsent monday
p76
F2.7504431095104867
sVcopi messag
p77
F3.728375356608002
sVuse intend
p78
F3.8121807168114055
sVnew york
p79
F3.2850646644815877
sVportlandwestdeskcalifornia schedulingiso
p80
F2.8700028026534343
sVintend recipi
p81
F3.479499953926455
sVsole use
p82
F3.6646745797028157
sVemail attach
p83
F3.7271580710042502
sVlet know
p84
F1.8327790654497915
sVnatur ga
p85
F3.219256425929695
sVrecipi pleas
p86
F3.7357103528195674
sVcc subject
p87
F2.6224814823686295
sVvinc j
p88
F3.5709240570901377
sVenron s
p89
F3.7630752444255826
sVschedulingiso final
p90
F2.8700028026534343
sVauthor receiv
p91
F3.8458539319179934
s.