(dp0
Vnorth america corp 1400
p1
F5.218542640982106
sVother strictli prohibit intend
p2
F3.8582593287754814
sVsent wednesday octob 24
p3
F5.279843166845901
sVreceiv email error pleas
p4
F5.234891778983635
sVdbcaps97data error dbcaps97data perform
p5
F5.018363466788145
sVintervent requir log messag
p6
F4.836779645180729
sVenron power market inc
p7
F5.125692487018643
sVfree download msn explor
p8
F5.027252414205391
sVcopyright 2000 dow jone
p9
F4.9541015325697755
sVattach hereto intend offer
p10
F3.8568733271676043
sVcorp 1400 smith street
p11
F5.2131517923472295
sVpm vinc j kaminskihouect
p12
F5.145593641335938
sVpars file portlandwestdeskcalifornia schedulingiso
p13
F2.870519198223908
sVmessag nelson michel sent
p14
F5.24594161517022
sVaffili intend recipi parti
p15
F3.8554892439016655
sVschedul found prefer schedul
p16
F5.171040306997102
sVparti may reli anyon
p17
F3.86382262546081
sVmessag pars file portlandwestdeskcalifornia
p18
F2.8720699868520994
sVmateri sole use intend
p19
F3.8444850063106517
sVmanual intervent requir log
p20
F4.836779645180729
sVmonday octob 29 2001
p21
F5.285606871562652
sVhereto intend offer accept
p22
F3.8568733271676043
sVaward varianc detect varianc
p23
F5.140581099512394
sVbasi contract estoppel otherwis
p24
F3.8624288970122063
sVevid bind enforc contract
p25
F3.849971988526911
sVprice data process continu
p26
F4.712050718473233
sVmessag email attach hereto
p27
F3.8513484512356344
sVclose databas error dbcaps97data
p28
F5.000819157137235
sVuse intend recipi review
p29
F3.8554892439016655
sV2001 dow jone compani
p30
F4.8221273683938595
sVschedul download fail manual
p31
F4.1308000245509
sVoper close databas error
p32
F5.000819157137235
sValia dbcaps97data error dbcaps97data
p33
F5.018363466788145
sVprohibit intend recipi author
p34
F3.8568733271676043
sVdownload fail manual intervent
p35
F4.1308000245509
sVforward vinc j kaminskihouect
p36
F4.811277352369793
sVorigin messag kitchen louis
p37
F4.010793193375834
sVancillari schedul award varianc
p38
F3.002281200826204
sVbind enforc contract enron
p39
F3.9836999027203084
sVegroupscom use yahoo group
p40
F5.279843166845901
sVrequir log messag pars
p41
F4.929510129432454
sVintend recipi author receiv
p42
F3.854107073674714
sVdbcaps97data unknown databas alia
p43
F5.02279806385601
sVamerica corp 1400 smith
p44
F5.218542640982106
sVcorp andor relev affili
p45
F3.8921130552999066
sVc reuter limit 2001
p46
F5.268414471022279
sVanyon basi contract estoppel
p47
F3.854107073674714
sVclose databas unknown databas
p48
F5.02279806385601
sVrelev affili may contain
p49
F3.8527268112057556
sVmonday novemb 26 2001
p50
F5.279843166845901
sVoffer accept creat evid
p51
F3.854107073674714
sVnews servic c reuter
p52
F5.251512660219675
sVenron corp enronmessagingadministr enroncom
p53
F3.9947672093599897
sVintend recipi parti may
p54
F3.8610371083393837
sVj kaminskihouect cc subject
p55
F4.833096399764433
sVpleas contact sender repli
p56
F3.843117952099119
sVenron corp andor relev
p57
F3.9758690091397604
sVreview use distribut disclosur
p58
F3.8513484512356344
sVoper close databas unknown
p59
F5.02279806385601
sVreceiv recipi pleas contact
p60
F3.8527268112057556
sVaccept creat evid bind
p61
F3.854107073674714
sVenforc contract enron corp
p62
F3.991592603519217
sVmsn explor http explorermsncomintlasp
p63
F5.297234909557771
sVdisclosur other strictli prohibit
p64
F3.8596472540503295
sVlet know question thank
p65
F4.8976349209020045
sVaward varianc detect log
p66
F3.1270123019832656
sVrecipi parti may reli
p67
F3.8610371083393837
sVdatabas alia dbcaps97data error
p68
F5.02279806385601
sVemail attach hereto intend
p69
F3.8568733271676043
sVdownload msn explor http
p70
F5.031726694600311
sVcreat evid bind enforc
p71
F3.8513484512356344
sVandor relev affili may
p72
F3.8527268112057556
sVfound prefer schedul detail
p73
F5.171040306997102
sVcc vinc j kaminskihouect
p74
F4.8976349209020045
sVorigin messag maggi mike
p75
F4.885938881138813
sVmonday octob 22 2001
p76
F5.02279806385601
sVperform oper close databas
p77
F5.000819157137235
sVfinal schedul found prefer
p78
F5.171040306997102
sVsent monday novemb 19
p79
F5.082312191388418
sVnew york stock exchang
p80
F5.1866250380138
sVschedul varianc found tabl
p81
F5.234891778983635
sVtaylor mark e legal
p82
F5.040735764542678
sVmessag kitchen louis sent
p83
F4.050337060514801
sVtuesday octob 23 2001
p84
F5.223962708451444
sVsent thursday octob 25
p85
F5.279843166845901
sVvinc j kaminskihouect subject
p86
F5.1658989074966835
sVuse distribut disclosur other
p87
F3.8568733271676043
sVpleas feel free call
p88
F5.262748733486601
sVfile portlandwestdeskcalifornia schedulingiso final
p89
F2.8700028026534343
sVwednesday octob 24 2001
p90
F5.1866250380138
sVdelet copi messag email
p91
F3.8527268112057556
sVgroup subject http docsyahoocominfoterms
p92
F5.120778472216214
sVcorp enronmessagingadministr enroncom delet
p93
F3.9947672093599897
sVintend recipi review use
p94
F3.8554892439016655
sVerror dbcaps97data perform oper
p95
F5.000819157137235
sVhourahead price data process
p96
F4.712050718473233
sVfriday octob 26 2001
p97
F5.279843166845901
sVenron north america corp
p98
F4.712050718473233
sVdatabas alia dbcaps97data unknown
p99
F5.02279806385601
sVthursday octob 18 2001
p100
F5.279843166845901
sVc 2001 dow jone
p101
F4.833096399764433
sVvarianc detect varianc detect
p102
F5.140581099512394
sVemail properti enron corp
p103
F3.9758690091397604
sVcopyright c 2001 dow
p104
F4.833096399764433
sVretriev hourahead price data
p105
F4.712050718473233
sValia dbcaps97data unknown databas
p106
F5.02279806385601
sVcontact sender repli enron
p107
F3.9868495116232046
sVblackberri wireless handheld wwwblackberrynet
p108
F4.796991395122316
sVorigin messag nelson michel
p109
F5.240401434794605
sVsent blackberri wireless handheld
p110
F4.5752672904623335
sVunsubscrib group send email
p111
F5.268414471022279
sVstrictli prohibit intend recipi
p112
F3.834954641459958
sVauthor receiv recipi pleas
p113
F3.8554892439016655
sVschedul log messag pars
p114
F5.140581099512394
sVpleas let know thank
p115
F4.765575198888937
sVaffili may contain confidenti
p116
F3.8513484512356344
sVenron corp affili intend
p117
F3.9963582995922318
sVdbcaps97data perform oper close
p118
F5.000819157137235
sVintend offer accept creat
p119
F3.8568733271676043
sVget free download msn
p120
F5.031726694600311
sVerror retriev hourahead price
p121
F4.712050718473233
sVdatabas unknown databas alia
p122
F5.02279806385601
sVcopyright 2001 commissionercom inc
p123
F5.181403094032649
sVmay reli anyon basi
p124
F3.8527268112057556
sVpleas feel free contact
p125
F5.005176462506191
sVvinc j kaminskihouect cc
p126
F4.4856551317726465
sV2001 commissionercom inc sportslinecom
p127
F5.1355935580013545
sVservic c reuter limit
p128
F5.251512660219675
sVdetect log messag pars
p129
F3.129016980235644
sVyahoo group subject http
p130
F5.120778472216214
sVdatabas error dbcaps97data perform
p131
F5.000819157137235
sVenronmessagingadministr enroncom delet copi
p132
F3.9947672093599897
sVdetail transtyp final scid
p133
F5.171040306997102
sVsole use intend recipi
p134
F3.8241728658566694
sVtuesday novemb 20 2001
p135
F5.111022297270849
sVpleas let us know
p136
F5.0590011125199705
sVcontain confidenti privileg materi
p137
F3.8458539319179934
sVcopi messag email attach
p138
F3.8527268112057556
sVpleas let know question
p139
F4.386809297136014
sVmay contain confidenti privileg
p140
F3.820159482543211
sVpleas let know need
p141
F5.285606871562652
sVschedul detail transtyp final
p142
F5.171040306997102
sVrecipi review use distribut
p143
F3.8624288970122063
sVlog messag pars file
p144
F2.8684552140030566
sVproperti enron corp andor
p145
F3.9758690091397604
sVfail manual intervent requir
p146
F4.1308000245509
sVcontract estoppel otherwis thank
p147
F3.866615923366423
sVuse yahoo group subject
p148
F5.027252414205391
sVconfidenti privileg materi sole
p149
F3.8444850063106517
sVrecipi pleas contact sender
p150
F3.80033067689391
sVthursday octob 25 2001
p151
F5.218542640982106
sVhourahead schedul download fail
p152
F4.183148424307063
sVsent monday octob 22
p153
F5.087040332584364
sVschedul award varianc detect
p154
F3.002281200826204
sVmonday novemb 19 2001
p155
F4.979312951916271
sVdistribut disclosur other strictli
p156
F3.8568733271676043
sVprefer schedul detail transtyp
p157
F5.171040306997102
sVdow jone compani inc
p158
F4.673707363275586
sVvinc forward vinc j
p159
F5.005176462506191
sVcontract enron corp affili
p160
F3.9931786466748522
sVsent tuesday novemb 20
p161
F5.279843166845901
sVprivileg materi sole use
p162
F3.8444850063106517
sVenroncom delet copi messag
p163
F3.9868495116232046
sVjone compani inc right
p164
F4.751923109720611
sVrecipi author receiv recipi
p165
F3.8568733271676043
sVrepli enron corp enronmessagingadministr
p166
F3.9947672093599897
sVcompani inc right reserv
p167
F4.738454892669744
sVreuter english news servic
p168
F5.240401434794605
sV2000 dow jone compani
p169
F4.941730240767228
sVenglish news servic c
p170
F5.24594161517022
sVschedul final schedul found
p171
F5.202456503230481
sVunknown databas alia dbcaps97data
p172
F5.02279806385601
sVsender repli enron corp
p173
F3.9868495116232046
sVreli anyon basi contract
p174
F3.8527268112057556
sVmessag maggi mike sent
p175
F4.885938881138813
sVvarianc detect log messag
p176
F3.1270123019832656
sVfeder energi regulatori commiss
p177
F5.096564214095619
sVcorp affili intend recipi
p178
F3.916805667890278
s.