(dp0
S''
p1
F2.975818528973403
sVrepresent
p2
F3.667876977798152
sVconsider
p3
F3.1065527169768647
sVlimited
p4
F4.00805574869664
sVdollar
p5
F3.8525953109873186
sVmonth
p6
F2.456532067230733
sVfour
p7
F3.5270274877355945
sVfollow
p8
F1.796325941494758
sVsettlement
p9
F3.69881867268303
sVtx
p10
F3.5794157999021645
sVelectricity
p11
F3.6843337397616627
sVtw
p12
F3.8617998467163903
sVthursday
p13
F2.2734546933085342
sVprogram
p14
F3.1146549738276192
sVsorry
p15
F3.54900639445437
sVpresentation
p16
F3.5204330220103137
sVworth
p17
F4.005002311209751
sVsound
p18
F3.9676007940043267
sVfax
p19
F2.3052556186715147
sVrisk
p20
F2.6583555836289743
sVconfidential
p21
F3.0324004077728794
sVfar
p22
F3.364272291255031
sVrise
p23
F4.009585970877408
sVevery
p24
F3.2483651773600837
sVdecide
p25
F3.5055212825146307
sVfall
p26
F3.6463476209455763
sVaffect
p27
F3.785524005293836
sVticket
p28
F4.047031843453398
sVdifference
p29
F3.9989232651333677
sVcondition
p30
F3.68212379411086
sVdelivery
p31
F3.244795020051378
sVsteve
p32
F2.8655680280213853
sVschool
p33
F3.8344365759754475
sVlist
p34
F2.1891452904026347
sVwednesday
p35
F2.232740637694963
sVlarge
p36
F3.119673804939562
sVsmall
p37
F3.498147977220879
sVlisa
p38
F3.6015717917993735
sVenjoy
p39
F3.9329652973415703
sVapproximately
p40
F3.899489368145181
sVtel
p41
F3.947251254589047
sVandor
p42
F3.123454527779468
sVmiller
p43
F3.9329652973415703
sVpaso
p44
F3.927307573621712
sVdirect
p45
F3.2455080325593038
sVpast
p46
F3.0492563721022146
sVllc
p47
F3.911911888143738
sVlikely
p48
F3.4019199451263247
sVstreet
p49
F3.177942713063538
sVdesign
p50
F3.853905068869382
sVpass
p51
F3.694339381878984
sVinvestment
p52
F3.4638485861140627
sVeven
p53
F2.8277554352603596
sVrichard
p54
F3.2376927174693115
sVsection
p55
F3.71010547421766
sVassociate
p56
F3.110284064589723
sVversion
p57
F3.359464589686928
sVconduct
p58
F4.053411450417438
sVnew
p59
F1.7509863702247574
sVnet
p60
F3.3610645900282616
sVever
p61
F3.8344365759754475
sVpublic
p62
F3.387019007166312
sVfull
p63
F3.2201545618728473
sVnever
p64
F3.6657030638985324
sVnovember
p65
F2.3684950768074318
sVstrong
p66
F3.689880065682219
sVenron
p67
F1.8613557643684675
sVbalance
p68
F3.649547623676247
sVsender
p69
F3.281083471983051
sVahead
p70
F3.810308421363624
sVschedulingiso
p71
F2.9222674367468433
sVk
p72
F3.71010547421766
sVexperience
p73
F3.364272291255031
sVprior
p74
F3.1866471536936842
sVamount
p75
F3.1203029336171233
sVpick
p76
F3.810308421363624
sVaction
p77
F3.1839607853891008
sVauthorize
p78
F3.575439651522525
sVvia
p79
F3.2892467826222123
sVfamily
p80
F3.9188805574598313
sVreplace
p81
F3.9676007940043267
sVput
p82
F2.74054836738343
sVtotal
p83
F2.890260640611757
sVestablish
p84
F3.853905068869382
sVselect
p85
F3.754196142151984
sVproceed
p86
F3.8254793823714306
sVwould
p87
F1.3987057688343731
sVcharge
p88
F3.17196064138599
sVcall
p89
F1.5826037250089389
sVasset
p90
F3.314908568136695
sV6
p91
F2.916091400646278
sVtype
p92
F3.2215463505456694
sVtell
p93
F2.77916659310617
sVcompany
p94
F2.176086092859736
sVaward
p95
F2.8568258645255193
sVaware
p96
F3.842178550129063
sVphone
p97
F2.536088826891143
sVparticular
p98
F4.064674642696149
sVhold
p99
F2.8072991198974098
sVmust
p100
F2.977453852314134
sVkaminski
p101
F3.544187108018421
sVjoin
p102
F3.185974884760802
sVroom
p103
F3.354679891563592
sVhour
p104
F2.2484067544393618
sV1999
p105
F4.051812729053741
sVwork
p106
F1.7089936738214588
sVremain
p107
F2.9747297972382065
sVmr
p108
F3.723819974888447
sVtranswestern
p109
F4.097572346203208
sVdec
p110
F3.931547862660597
sVexample
p111
F3.811563914309456
sVgive
p112
F1.9947850484515217
sVshare
p113
F3.166014142198264
sVaccept
p114
F3.685440546736854
sVinvolve
p115
F3.4917406326458784
sVwant
p116
F1.9411155718666546
sVdrive
p117
F3.637864006967761
sVkeep
p118
F2.669921016630281
sVguarantee
p119
F3.924490670350598
sVena
p120
F3.382100964466667
sVanswer
p121
F3.3586655484937955
sVend
p122
F2.488134433769107
sVgoal
p123
F3.9588288079314897
sVthing
p124
F2.8758647603280245
sVrather
p125
F3.6865485800912157
sVtravel
p126
F4.045443280768261
sVspreadsheet
p127
F3.90223662262032
sVinterview
p128
F3.6357543015439115
sVplant
p129
F3.3626671544738027
sVfw
p130
F2.839092354037357
sVearlier
p131
F3.6211096883557135
sVwholesale
p132
F3.5157491726978876
sVreflect
p133
F3.6452832248897895
sVstorage
p134
F3.8885752079645024
sVlay
p135
F3.8777788817742795
sVpresident
p136
F3.1542261864462215
sVlaw
p137
F3.649547623676247
sVresponse
p138
F3.2685970813316687
sVa
p139
F3.3126176163901393
sVpurchase
p140
F3.0393408636259096
sVshort
p141
F3.3027503636568856
sVattempt
p142
F3.7782068994767695
sVeffective
p143
F3.3042620797422075
sVsusan
p144
F3.5824083208386184
sVregister
p145
F3.966133442310377
sVappreciate
p146
F3.3057760845734228
sVmaintain
p147
F3.8912926009410027
sVresponsibility
p148
F3.799079357647211
sVenter
p149
F3.2569859204039906
sVoperate
p150
F3.3699106469092976
sVorder
p151
F2.654793339608715
sVfeedback
p152
F3.906371707768123
sVoffice
p153
F2.3170237567243688
sVseptember
p154
F2.916091400646278
sVsoon
p155
F2.863131973223504
sVtrade
p156
F2.6975762967822554
sVpaper
p157
F3.6865485800912157
sVlondon
p158
F3.4427766914319564
sVcommittee
p159
F3.5904324361086664
sV24
p160
F3.2132245272081774
sV25
p161
F3.0169582936577144
sV26
p162
F3.2063421875852356
sV27
p163
F3.452379558765298
sV20
p164
F2.6092256108817695
sV21
p165
F3.321043556704211
sV22
p166
F3.326442721381982
sV23
p167
F3.387019007166312
sVpersonal
p168
F3.7033181178442596
sVfix
p169
F3.9202801378142547
sV28
p170
F3.5774257494941546
sV29
p171
F3.4917406326458784
sVactually
p172
F3.785524005293836
sVlate
p173
F2.784100444783366
sVproduction
p174
F3.4935671171719127
sVstephen
p175
F3.982393963182157
sVmight
p176
F2.8641056831349054
sVsomeone
p177
F3.285527923743475
sVreturn
p178
F2.9655231251123038
sVceo
p179
F4.056616581366386
sVpropose
p180
F3.240527588255159
sVbreak
p181
F3.8912926009410027
sVfebruary
p182
F3.0979000053900014
sVbank
p183
F3.519494495428049
sValways
p184
F3.605653430119022
sVcell
p185
F3.3723368510917617
sVl
p186
F3.0899318357408245
sVaffiliate
p187
F3.4019199451263247
sVside
p188
F3.5204330220103137
sVmean
p189
F3.207714871397208
sVprohibit
p190
F3.272253392534779
sVeveryone
p191
F3.2084019205482464
sVfinancial
p192
F2.788155417674603
sVgeneration
p193
F3.7782068994767695
sVhouse
p194
F3.7010658646399346
sVenergy
p195
F2.155491785360992
sVhard
p196
F3.5073731348957042
sVreduce
p197
F3.575439651522525
sVidea
p198
F3.4700791358646987
sVsolution
p199
F3.685440546736854
sVoil
p200
F3.6887683368295283
sVtrading
p201
F2.6808104164295496
sVexpect
p202
F2.786801932243527
sVportland
p203
F4.026574796463878
sVsaturday
p204
F3.704446149548758
sVreally
p205
F3.158140085767358
sVleave
p206
F2.7205178660246623
sVnetwork
p207
F3.6442199605684595
sVp
p208
F3.182620302614649
sVmiss
p209
F3.494481611977301
sVrobert
p210
F2.9622938435115884
sVsince
p211
F2.654793339608715
sVpublish
p212
F3.6118072956934
sVresearch
p213
F3.0545458349196126
sVcontent
p214
F3.7553830859115123
sVre
p215
F3.1329693474208065
sV7
p216
F3.1065527169768647
sVprint
p217
F3.909137961261013
sVissue
p218
F2.1386087306792483
sVresume
p219
F3.8831624748577522
sVfriday
p220
F2.1189956807878594
sVfree
p221
F2.58351150544275
sVstandard
p222
F3.54900639445437
sVreason
p223
F3.286270589949166
sVbase
p224
F2.6783802815762576
sVask
p225
F2.4649929052074127
sVestimate
p226
F3.4935671171719127
sVgenerate
p227
F3.853905068869382
sVlaunch
p228
F3.9838853877688276
sVamerican
p229
F3.452379558765298
sVw
p230
F3.115907322144085
sVpurpose
p231
F3.4790478058474594
sVmajor
p232
F3.516684189128794
sValready
p233
F2.83814268634965
sVfeel
p234
F2.938925812593038
sVrelate
p235
F3.3295410972146517
sVnumber
p236
F2.099079719780446
sVemail
p237
F1.5432269934451688
sVnotify
p238
F3.4763487488782943
sVanother
p239
F2.7733668891402576
sVforce
p240
F3.761339029664364
sVelectronic
p241
F3.9216816797395433
sVstory
p242
F3.9458134398194193
sVservice
p243
F2.0422487494908963
sVattach
p244
F2.0129186588761767
sVtop
p245
F3.3233539158373953
sVleast
p246
F3.3731468956885062
sVmaster
p247
F3.889932981424963
sVstatement
p248
F3.675523110079508
sVtom
p249
F3.411136600231249
sVjohn
p250
F2.3687918567472863
sVoption
p251
F2.842900069251919
sVrelationship
p252
F3.982393963182157
sVserve
p253
F3.6005539800066724
sVimmediate
p254
F4.09590150203839
sVpart
p255
F2.7976814593186634
sVbelieve
p256
F2.783201568318349
sVkind
p257
F3.708971044147048
sVb
p258
F3.3507100570526807
sVtarget
p259
F3.8644453509048144
sVrate
p260
F2.9730989189207615
sVproject
p261
F2.7702578482170606
sVmatter
p262
F3.435850256814087
sVgreg
p263
F3.4656247855153186
sVwilliams
p264
F3.5204330220103137
sVmind
p265
F3.8981185660114024
sVseem
p266
F3.29522587367827
sVseek
p267
F3.8318691804702016
sVsell
p268
F2.9473602326523296
sVresponsible
p269
F3.730748409070411
sValso
p270
F1.7606342984144776
sVinternal
p271
F3.970541972595143
sVbuild
p272
F3.441908258898003
sVancillary
p273
F3.00175101664512
sVplay
p274
F3.429828733243401
sVelectric
p275
F3.617999265941321
sVthough
p276
F3.614898488263073
sVpark
p277
F4.003479081669228
sVreach
p278
F3.246935584550489
sVplan
p279
F2.2619186834179272
sVletter
p280
F3.2306405020639866
sVnothing
p281
F3.90223662262032
sVenroncom
p282
F2.573262513825923
sVhourahead
p283
F2.78185476676797
sVclear
p284
F3.4145092847098883
sVflow
p285
F3.314908568136695
sVreserve
p286
F3.2391091483010253
sVthomas
p287
F3.9400827651104344
sVsession
p288
F3.9202801378142547
sVrelation
p289
F4.05822300741466
sVparticipate
p290
F3.685440546736854
sVfine
p291
F3.950133100963936
sVfind
p292
F2.1896414452131108
sVimpact
p293
F3.523253898351955
sVaccess
p294
F2.817939979032131
sVcopyright
p295
F3.5724678811333677
sVlouise
p296
F2.9048667930011187
sVexplain
p297
F3.9530232763861695
sVrick
p298
F3.6015717917993735
sVpretty
p299
F3.9617442618916137
sVequity
p300
F3.8845129139556236
sVannounce
p301
F3.4480031841654992
sVoct
p302
F3.638920531101961
sVdo
p303
F2.9033458801604124
sVhit
p304
F3.8872192755533668
sVexpress
p305
F3.8140796389067035
sVwatch
p306
F3.966133442310377
sVdespite
p307
F4.099245986761237
sVreport
p308
F2.188897305280471
sV14
p309
F3.2490807408968774
sVresolve
p310
F3.7769925702443676
sVremove
p311
F3.7215211233013363
sVbad
p312
F3.80530215308548
sVactivity
p313
F3.2271329572543093
sVrelease
p314
F3.357867145257771
sVrespond
p315
F3.387019007166312
sVset
p316
F2.5871974661216735
sVreference
p317
F3.6602888655076598
sVsee
p318
F1.7105293006588551
sVindividual
p319
F3.1127793871571243
sVresult
p320
F2.90639002254164
sVfail
p321
F3.4153542361754523
sVclose
p322
F2.7890587601027894
sVbest
p323
F2.54596196774108
sVsubject
p324
F1.005618177236988
sV02
p325
F4.087588902219024
sV01
p326
F3.748282464361936
sVcapacity
p327
F3.1445079369773
sVaway
p328
F3.639978172660096
sVcurrently
p329
F2.753110802464523
sVplease
p330
F0.8417939032313515
sVfuture
p331
F2.885770735338905
sVvarious
p332
F3.711241192681587
sVprobably
p333
F3.1732869015273435
sVapproach
p334
F3.6810206500387026
sVeurope
p335
F3.6484798179154168
sVaccord
p336
F3.4691866770816793
sVrecently
p337
F3.5774257494941546
sVextend
p338
F3.833152054283091
sVwo
p339
F3.8015638309748727
sVsole
p340
F3.6420968175203816
sVhowever
p341
F2.5754499007717233
sVnews
p342
F2.9709285436792117
sVdebt
p343
F4.051812729053741
sVimprove
p344
F3.9617442618916137
sVc
p345
F2.8263473148681038
sVlast
p346
F2.137194969840568
sVcountry
p347
F3.9049914452991645
sVannual
p348
F3.9632051825312886
sVvariance
p349
F2.9873223534548883
sVexpense
p350
F3.8591613227582093
sVapprove
p351
F3.4384420509215166
sVload
p352
F3.6211096883557135
sVpoint
p353
F2.5336356979230663
sVothers
p354
F3.063424259620946
sVkaren
p355
F3.780639990701411
sVsimply
p356
F3.903613085329043
sV100
p357
F3.2222429719601178
sVspeak
p358
F3.1548774401325415
sVconference
p359
F2.9720131424840157
sVdecline
p360
F3.9928809506774052
sVlight
p361
F3.8090545027040306
sVraise
p362
F3.707837899549879
sVkimberly
p363
F3.960285472427954
sVcreate
p364
F2.68446672763266
sVacceptance
p365
F3.750643740547616
sVdue
p366
F2.587566810539538
sVstrategy
p367
F3.643157825577476
sVcommission
p368
F3.4665140697002026
sVmuch
p369
F2.5667289152662787
sVpg
p370
F3.91052396286889
sVinterest
p371
F2.808680653619334
sVprivilege
p372
F3.3960987228667086
sS'meeting'
p373
F2.285944673758427
sVlocation
p374
F3.4953969438489887
sVwebsite
p375
F3.28182284355093
sVlife
p376
F3.9301324342572665
sVgas
p377
F1.988880521473356
sVelse
p378
F3.339677636249104
sVfund
p379
F3.6463476209455763
sVdave
p380
F3.430686734154038
sVunderstand
p381
F3.0551352838019907
sVrepresentative
p382
F3.914693531105615
sVdemand
p383
F3.4890071457502176
sVeast
p384
F3.589425893497265
sVlook
p385
F1.9721715267962223
sVbill
p386
F2.733256891802092
sVn
p387
F4.031258645776305
sVtechnical
p388
F4.084283114084525
sVnear
p389
F3.8460721306481953
sVerror
p390
F3.0062328168641774
sVproperty
p391
F3.4375773729601624
sVstudy
p392
F4.055012731784411
sVprocedure
p393
F4.017272403801565
sVplayer
p394
F3.974970024110875
sVready
p395
F3.5794157999021645
sVie
p396
F3.925898130118478
sVid
p397
F3.3985893841791603
sVgrant
p398
F4.00805574869664
sVperform
p399
F3.7261241233732973
sVsuggest
p400
F3.3507100570526807
sVmake
p401
F1.6772785421282332
sV9
p402
F3.3195062773853246
sVadvise
p403
F3.3952698790563076
sVseveral
p404
F3.0011922013190384
sVcouple
p405
F3.5213724302522498
sVeuropean
p406
F4.009585970877408
sVdevelopment
p407
F3.0463298262616454
sVindependent
p408
F3.9049914452991645
sVcounterparty
p409
F3.7377251815560593
sVyesterday
p410
F3.2271329572543093
sVhand
p411
F3.723819974888447
sVuser
p412
F3.315673386529617
sVkim
p413
F3.744750971580465
sVopportunity
p414
F2.910973682209298
sVimplement
p415
F4.006527864518588
sVrecent
p416
F3.2649540900531675
sVdaren
p417
F3.828030404163036
sVdatabase
p418
F3.944377689393315
sVanalysis
p419
F3.5157491726978876
sVperson
p420
F3.072982277427051
sVclient
p421
F3.8512872663273034
sVorganization
p422
F3.6474131511476147
sV800
p423
F3.935806208343174
sVcorporate
p424
F3.4682950140711974
sVspend
p425
F3.754196142151984
sVdistribute
p426
F3.970541972595143
sVidentify
p427
F3.6118072956934
sVthanks
p428
F1.3288581772162134
sVimmediately
p429
F3.281083471983051
sVyes
p430
F3.609751796511304
sVyet
p431
F3.0838453896844222
sVprevious
p432
F3.8015638309748727
sVcut
p433
F3.672239034878318
sVsource
p434
F3.354679891563592
sVboard
p435
F3.4772476253433116
sVeasy
p436
F3.8140796389067035
sVsave
p437
F3.7055754551459095
sVchairman
p438
F3.69657651927734
sVmarch
p439
F3.190015294297807
sVbig
p440
F3.179276936076674
sVbid
p441
F3.820396779307965
sVcredit
p442
F2.841470476442325
sVpossible
p443
F2.6751492609948113
sVgame
p444
F3.756571440180891
sVd
p445
F2.781406235699675
sVmanual
p446
F3.9486911396470346
sV50
p447
F3.5176200806336992
sVspecific
p448
F3.467404145415396
sVkaminskihouect
p449
F3.775779713819158
sVcontinue
p450
F2.470563950256868
sVofficer
p451
F3.653830285468248
sVnight
p452
F3.4019199451263247
sVsecurity
p453
F3.298981041440594
sVright
p454
F2.5118242048915116
sVold
p455
F3.672239034878318
sVdeal
p456
F2.1419152995870494
sVpeople
p457
F2.6551885184322734
sVstaff
p458
F3.332649102824519
sVback
p459
F2.2129888092101018
sVeconomic
p460
F3.997409260302153
sVpricing
p461
F3.970541972595143
sVinvoice
p462
F3.9838853877688276
sVdear
p463
F3.339677636249104
sVdecision
p464
F3.2744536134443814
sVshall
p465
F3.7553830859115123
sVper
p466
F2.7383982913025107
sVeverything
p467
F3.830587950314153
sVunit
p468
F3.231343489790653
sVquote
p469
F4.0422737060069815
sVrun
p470
F2.8597314355769337
sV300
p471
F3.9301324342572665
sVmarketing
p472
F3.246221553816832
sVlose
p473
F3.532714706856184
sVagreement
p474
F2.5957270932108742
sVstep
p475
F3.4445158223050836
sVcorp
p476
F2.4019874213162775
sVpost
p477
F3.0393408636259096
sVpipeline
p478
F3.17196064138599
sVanything
p479
F3.0434118201059315
sVrange
p480
F4.099245986761237
sVensure
p481
F3.324897126020201
sVafternoon
p482
F3.387019007166312
sVsept
p483
F4.064674642696149
sVdisclosure
p484
F3.3195062773853246
sVferc
p485
F3.6506165708651523
sVsignificant
p486
F3.651686661924997
sVfacility
p487
F3.5213724302522498
sVwithin
p488
F2.943661417338872
sVtwo
p489
F2.3286468500136612
sV77002
p490
F4.047031843453398
sVappropriate
p491
F3.581409818509029
sVsteven
p492
F3.770942945018544
sVbankruptcy
p493
F3.991376059497985
sVrely
p494
F3.587415842569241
sVsupport
p495
F2.6477066957777238
sVinitial
p496
F3.9573742622204953
sVquestion
p497
F1.7070008778833625
sVlong
p498
F2.8611873931260496
sVpayment
p499
F3.3650758268547145
sVway
p500
F2.566367186197404
sVforward
p501
F1.8115109810398988
sVtherefore
p502
F3.573457490318534
sVhead
p503
F3.2796063668400377
sVinvite
p504
F4.029694923800122
sVform
p505
F2.8912611409453404
sVoffer
p506
F2.464012993321064
sVrecommend
p507
F3.903613085329043
sVhear
p508
F3.086883982116571
sVline
p509
F2.8059194921780057
sVanalyst
p510
F3.5616463293901894
sVinfo
p511
F3.4480031841654992
sVattached
p512
F3.080816002332815
sVus
p513
F3.3731468956885062
sVsimilar
p514
F3.8434747265905096
sVdelete
p515
F3.2306405020639866
sVcover
p516
F3.2334554229937966
sVevidence
p517
F3.552878616136879
sVsingle
p518
F4.082634309094341
sVexist
p519
F3.403589394595866
sVaccounting
p520
F3.9734918272415642
sVcheck
p521
F2.8832850268753316
sVphysical
p522
F3.675523110079508
sVfloor
p523
F3.6118072956934
sVpower
p524
F2.1680402125661042
sVtim
p525
F3.6657030638985324
sVinterested
p526
F3.243370518385993
sVrole
p527
F3.4862811104409794
sVdepartment
p528
F3.3467559198327
sVnt
p529
F1.832296750421456
sVpicture
p530
F4.003479081669228
sVdraw
p531
F4.005002311209751
sVintend
p532
F2.8773444153452106
sVwelcome
p533
F3.865770732145883
sVupdate
p534
F2.5294442841724742
sVwilliam
p535
F3.748282464361936
sVweekend
p536
F3.500906599659958
sVstructure
p537
F3.4781473105142093
sVago
p538
F3.6005539800066724
sVe
p539
F2.68446672763266
sVlead
p540
F3.2008702177072426
sVvice
p541
F3.754196142151984
sVassume
p542
F3.404425165643262
sVdaily
p543
F2.9752740149387136
sV2002
p544
F2.261385350071952
sV2000
p545
F2.749195200333154
sV2001
p546
F1.2729537697989612
sVtime
p547
F1.516291929182503
sVpush
p548
F4.102601694608209
sVinternational
p549
F3.411978705544171
sVinc
p550
F2.720096014088434
sVhello
p551
F4.072798164217628
sVcode
p552
F3.7697373993631955
sVglobal
p553
F3.0289481603856503
sVfocus
p554
F3.365880008643128
sVlaura
p555
F4.0892459034266535
sVmanager
p556
F2.9730989189207615
sVhereto
p557
F3.8670978723539453
sVgo
p558
F1.7160771650965732
sViii
p559
F4.0892459034266535
sVsend
p560
F1.1025928642869582
sVenvironment
p561
F4.079344832443942
sV0
p562
F3.8090545027040306
sVfinally
p563
F4.074430817641513
sVsuite
p564
F4.009585970877408
sVinclude
p565
F2.074232330675996
sVsent
p566
F2.9008161545512734
sVbrown
p567
F3.761339029664364
sVconfirmation
p568
F4.005002311209751
sV713
p569
F2.77381182796851
sVword
p570
F3.5764322074352766
sVminute
p571
F3.6777185006429436
sVentire
p572
F3.9676007940043267
sVlevel
p573
F3.1772762685203775
sVtransmission
p574
F3.5045966407474123
sVmichael
p575
F2.925887818254908
sVtry
p576
F2.619470435830194
sVitem
p577
F3.423843251500364
sVteam
p578
F2.5396037689985875
sVquick
p579
F4.000439565651332
sVguy
p580
F3.3256696250929934
sVsign
p581
F2.9104633479292765
sVcost
p582
F2.790867896733722
sVdownload
p583
F3.532714706856184
sVclick
p584
F2.684059810027859
sVindex
p585
F3.903613085329043
sVappear
p586
F3.284785808681587
sVassistance
p587
F3.74240355266216
sVmw
p588
F3.9676007940043267
sVcurrent
p589
F2.6298213045538503
sVcapital
p590
F3.492653457903238
sVreply
p591
F2.9867715409926006
sV1400
p592
F3.8591613227582093
sVtransportation
p593
F3.8178651323861854
sVlee
p594
F4.100922433088489
sVexchange
p595
F3.539390935754928
sVlearn
p596
F3.736559000665877
sVcommercial
p597
F3.4515027502917635
sVlet
p598
F1.6066913820146782
sVaddress
p599
F2.512852130286118
sValong
p600
F3.3960987228667086
sVchange
p601
F1.9393752639731026
sVwait
p602
F3.6036105284892215
sVbox
p603
F4.0892459034266535
sVgreat
p604
F2.7050266623707673
sVreceive
p605
F1.8443461409440962
sV31
p606
F3.4799491128034723
sV30
p607
F2.933168141623033
sVsuggestion
p608
F4.028133643233169
sVopinion
p609
F3.9883730542382154
sVbob
p610
F3.1995068909793782
sVlove
p611
F3.8912926009410027
sVwin
p612
F4.0375381012611475
sVmanage
p613
F3.2036024598441153
sVprefer
p614
F3.6976969675738296
sVprivate
p615
F3.960285472427954
sVapply
p616
F3.7157970092174475
sVmarket
p617
F2.206406506963404
sVuse
p618
F1.7861634217130773
sVfee
p619
F3.8254793823714306
sVfeb
p620
F4.09590150203839
sVdiscus
p621
F3.3699106469092976
sVvisit
p622
F3.0045497870138846
sVnext
p623
F2.1819785724675413
sVlive
p624
F3.8578446668734623
sVtoday
p625
F2.0700403774883354
sVfuel
p626
F3.8040544922873245
sV8
p627
F3.2084019205482464
sVactual
p628
F4.0422737060069815
sVeffort
p629
F3.0814211460729157
sVbehalf
p630
F3.927307573621712
sVcustomer
p631
F2.7487610783380574
sVaccount
p632
F2.8937667799410445
sVf
p633
F3.673332528699689
sVchallenge
p634
F4.0328248168090495
sVportlandwestdeskcalifornia
p635
F2.9217513077031274
sVmeet
p636
F2.373254157770685
sVcontrol
p637
F3.204971385451457
sVclaim
p638
F3.868426776203999
sVfigure
p639
F3.9530232763861695
sVprocess
p640
F2.45071621885073
sVdecember
p641
F2.9321248447104558
sVtax
p642
F3.792895046038426
sVhigh
p643
F2.68446672763266
sVsomething
p644
F3.2512305088333697
sVoccur
p645
F3.8764374999500784
sVunited
p646
F3.9329652973415703
sVsit
p647
F3.7673306593326306
sVdiscussion
p648
F3.05160379102052
sVsix
p649
F3.98987342961345
sVdelay
p650
F3.8499809304132477
sVbrian
p651
F3.5985214589817502
sVsunday
p652
F3.585409823842375
sVattachment
p653
F3.035864614470549
sVinstead
p654
F3.925898130118478
sVstock
p655
F3.555792654138729
sVproduct
p656
F2.9043595649912586
sVattend
p657
F3.2620492223605373
sVinformation
p658
F1.7904823653036777
sVmay
p659
F1.6832424780998607
sVstop
p660
F3.735394178169584
sVspot
p661
F4.001958168828522
sVproduce
p662
F3.855216544467193
sVdate
p663
F1.7227443732964358
sVcourt
p664
F4.005002311209751
sVdata
p665
F2.7645094353061963
sVgrow
p666
F3.976450409281309
sVcentral
p667
F3.748282464361936
sVnatural
p668
F3.158140085767358
sVremember
p669
F3.6999416374276537
sVcommodity
p670
F3.71010547421766
sVmaybe
p671
F3.9530232763861695
sVst
p672
F3.8003208227352756
sVprovide
p673
F2.130857664274746
sVchief
p674
F3.6463476209455763
sVagenda
p675
F4.087588902219024
sVtalk
p676
F2.5761800943054447
sVhouston
p677
F2.2734546933085342
sVmove
p678
F2.66671716927622
sVmeter
p679
F3.9133017424327927
sVentity
p680
F3.4367134420208987
sVcourse
p681
F3.4799491128034723
sVstill
p682
F2.40137392436452
sV1
p683
F1.9440228323696496
sVgroup
p684
F2.0439632805581365
sVthank
p685
F2.1753519682702986
sVll
p686
F2.622143723654816
sVjim
p687
F3.2635006014251844
sVchoose
p688
F3.98987342961345
sVpolicy
p689
F3.4585388391258327
sVmail
p690
F3.254823757399495
sVholiday
p691
F3.964668240583049
sVtexas
p692
F2.9818278341372473
sVfinance
p693
F3.4462579830244686
sVdan
p694
F3.8578446668734623
sVmaterial
p695
F3.0486703773593984
sVlunch
p696
F4.071168172006697
sVhalf
p697
F3.9458134398194193
sVfront
p698
F4.011118538227186
sVfeature
p699
F3.9588288079314897
sVnov
p700
F3.7661294579869966
sVinvestor
p701
F3.9230851887418634
sVdiscuss
p702
F2.650850116833675
sVterm
p703
F2.7087727645663797
sVname
p704
F2.3801352619601595
sVjames
p705
F3.150327546030564
sVuniversity
p706
F3.7649296977950923
sVdrop
p707
F3.702191357161669
sVquarter
p708
F3.7412319063652695
sVel
p709
F3.829308359608528
sVjones
p710
F3.4665140697002026
sVrelated
p711
F3.8777788817742795
sVyear
p712
F2.180994078171928
sVhappen
p713
F3.5270274877355945
sVmorning
p714
F2.727716711426477
sVspecial
p715
F3.4953969438489887
sVcanada
p716
F3.6810206500387026
sVprofit
p717
F4.0909056548450184
sVdevelop
p718
F3.3507100570526807
sVenforceable
p719
F3.8872192755533668
sVincrease
p720
F3.1259829741328264
sVinternet
p721
F3.540348331711255
sVutility
p722
F3.3927874615630524
sVcause
p723
F3.653830285468248
sVcorrect
p724
F3.617999265941321
sVstate
p725
F2.6873197966150664
sVfrank
p726
F3.671146735479709
sVmillion
p727
F3.2577076815324
sVjeff
p728
F2.8803103097585887
sVcalifornia
p729
F3.102835240576732
sVyork
p730
F3.322583202889804
sVregulatory
p731
F3.7010658646399346
sVobligation
p732
F4.011118538227186
sVcare
p733
F3.839591226564112
sVadvance
p734
F3.799079357647211
sVg
p735
F4.085934642122997
sVcould
p736
F2.0691600957413505
sVdavid
p737
F2.68446672763266
sVconversation
p738
F3.970541972595143
sVplace
p739
F2.6739403146456726
sVdavis
p740
F3.7953641830953475
sVretail
p741
F4.084283114084525
sVthink
p742
F2.089605252336526
sVsouth
p743
F3.812820985499507
sV1000
p744
F3.812820985499507
sVrevenue
p745
F3.925898130118478
sVone
p746
F1.8116810056938832
sVsubmit
p747
F3.5298670542436725
sVdirectly
p748
F3.411978705544171
sVcarry
p749
F3.9794177705091114
sVmessage
p750
F1.0310761950689127
sVopen
p751
F2.864592893863179
sS'tomorrow'
p752
F2.972555883338587
sVcity
p753
F3.556765890225281
sVlittle
p754
F3.2222429719601178
sVmanagement
p755
F2.5920096168107416
sVsheet
p756
F3.7330685957261083
sVsystem
p757
F2.3097224044344657
sVanyone
p758
F2.9840220204262313
sVindicate
p759
F3.4727613010846383
sV2
p760
F1.9707750178410826
sVdraft
p761
F3.2173767823089445
sVwhite
p762
F3.8845129139556236
sVfinal
p763
F2.3467742346062175
sVfriend
p764
F3.9486911396470346
sVseason
p765
F3.7697373993631955
sVunsubscribe
p766
F3.6810206500387026
sVshirley
p767
F3.9617442618916137
sVjuly
p768
F3.1873198748761347
sS'copy'
p769
F2.3708717861852784
sV11
p770
F2.99728921337028
sV10
p771
F2.5329359078315274
sV13
p772
F3.2635006014251844
sV12
p773
F2.855376238758255
sV15
p774
F2.8031659337608232
sVthird
p775
F3.5606683342022127
sV17
p776
F3.1739506917940004
sV16
p777
F3.1806129416194167
sV19
p778
F3.133606899243486
sV18
p779
F3.2526662592594744
sVrequire
p780
F2.480471561023538
sVr
p781
F3.3141443342439394
sVbind
p782
F3.6788180059763604
sVhappy
p783
F3.512017825085029
sVsan
p784
F3.5045966407474123
sVsay
p785
F2.307486517533182
sVneed
p786
F1.4640246723989185
sVturn
p787
F3.3944417216590788
sVkevin
p788
F3.060456017607871
sVinform
p789
F3.942943997391467
sVagency
p790
F3.9720158122134435
sVable
p791
F2.706273804498741
sVcontact
p792
F1.9374451340552294
sVnote
p793
F2.374447475334727
sVpotential
p794
F3.356272248587955
sVtake
p795
F1.8909163536023161
sVonline
p796
F3.045745543452152
sVperformance
p797
F3.6689657095333486
sV200
p798
F3.792895046038426
sVbegin
p799
F2.8008770794770714
sVsure
p800
F2.6020786931183246
sVunless
p801
F3.7261241233732973
sVallow
p802
F2.998960057535098
sVtrack
p803
F3.673332528699689
sVprice
p804
F2.1953649895176945
sVplus
p805
F4.031258645776305
sVamerica
p806
F2.783201568318349
sVsally
p807
F3.687657842545501
sVclass
p808
F4.0422737060069815
sVmichelle
p809
F3.54900639445437
sVespecially
p810
F4.048622933685641
sVaverage
p811
F3.727278191591404
sVlater
p812
F3.270058001971343
sVrequest
p813
F2.282671348413458
sVsale
p814
F2.8457654007252056
sVface
p815
F3.6976969675738296
sVlink
p816
F3.0324004077728794
sVsenior
p817
F3.485374080900337
sVfiling
p818
F3.98987342961345
sVfact
p819
F3.501827834179279
sVshow
p820
F2.8151531681249513
sVtext
p821
F4.051812729053741
sVbring
p822
F2.9922933661769084
sVportfolio
p823
F4.0126534579452695
sVhelp
p824
F2.1542934628688832
sV3
p825
F2.313647276307763
sVjan
p826
F3.6657030638985324
sVstatus
p827
F3.064018966745224
sVunable
p828
F3.707837899549879
sVemployee
p829
F2.8096027375943025
sVlocal
p830
F3.9343847439957966
sVhope
p831
F2.8142259543357593
sVfirst
p832
F2.306091622621557
sVhandle
p833
F3.6865485800912157
sVget
p834
F1.5211124383268366
sVassistant
p835
F3.8015638309748727
sVoverall
p836
F4.0892459034266535
sVresource
p837
F2.9922933661769084
sVh
p838
F3.8254793823714306
sVsummary
p839
F3.4187411996164685
sVcontain
p840
F2.8803103097585887
sVenronmessagingadministration
p841
F4.021912783358067
sVview
p842
F2.794041782871214
sVavailable
p843
F2.3133664168760615
sVrequirement
p844
F3.501827834179279
sVofficial
p845
F3.786748745189732
sVnational
p846
F3.760144999671756
sVcomputer
p847
F3.9188805574598313
sVconcern
p848
F2.94102775766541
sVdetect
p849
F3.0056714921230845
sVfederal
p850
F3.747103913842492
sVreview
p851
F2.0911781096431428
sVoutside
p852
F3.5626252819891735
sVprogress
p853
F3.9343847439957966
sVacross
p854
F3.8344365759754475
sVken
p855
F3.7388927240120973
sVnotice
p856
F3.228534499179598
sVattention
p857
F3.7637313753029837
sVgeorge
p858
F3.7215211233013363
sVaugust
p859
F3.100364578418163
sVimportance
p860
F3.761339029664364
sVdeliver
p861
F3.467404145415396
sVjr
p862
F3.842178550129063
sVjob
p863
F3.26932727486539
sVjoe
p864
F3.3318711953562743
sVkey
p865
F3.3459669651566677
sVarticle
p866
F4.006527864518588
sVcome
p867
F2.307765730155406
sVproblem
p868
F2.743134575721463
sVmonitor
p869
F3.9720158122134435
sS'many'
p870
F2.74054836738343
sVregion
p871
F3.796601041632744
sS'contract'
p872
F2.2376750718079346
sVetc
p873
F3.2899922168721605
sVs
p874
F1.0496316452841459
sVotherwise
p875
F3.2015525787026715
sVcomment
p876
F2.6575628764927353
sVamong
p877
F3.8140796389067035
sVrelevant
p878
F3.5298670542436725
sVco
p879
F3.5685192086779516
sVwall
p880
F3.9588288079314897
sVtuesday
p881
F2.242895652706939
sVperiod
p882
F3.272986261750432
sVapproval
p883
F3.0844523699761988
sVcancel
p884
F3.9559218291401805
sVrespect
p885
F3.9989232651333677
sVmailto
p886
F2.7125329528280298
sVsecond
p887
F3.216683541379968
sVaddition
p888
F3.2236376723256672
sVwest
p889
F3.1620693639072477
sVmark
p890
F2.428100188827047
sVproposal
p891
F3.839591226564112
sVkitchen
p892
F3.387841037627727
sVmary
p893
F3.3475454974497176
sV500
p894
F3.673332528699689
sVmike
p895
F2.7306960709404184
sVvince
p896
F2.8082199302755475
sVandrew
p897
F4.0391141457166135
sVderivative
p898
F4.085934642122997
sVformer
p899
F4.079344832443942
sVpresent
p900
F3.4393074771979455
sVcase
p901
F2.9585394813650514
sVmain
p902
F3.909137961261013
sVcash
p903
F3.2292360074510884
sVvalue
p904
F2.890260640611757
sVsituation
p905
F3.6527578993064953
sVtrader
p906
F3.357867145257771
sVve
p907
F2.994510661985556
sValmost
p908
F4.035964536813717
sVtelephone
p909
F3.985379040025611
sVparse
p910
F2.9171180947816393
sVgood
p911
F2.210452024490992
sVpartner
p912
F3.820396779307965
sVtechnology
p913
F3.4718664464387947
sVdifferent
p914
F3.4145092847098883
sVpas
p915
F3.9077538779950745
sVparticipant
p916
F3.6581313673676386
sVapril
p917
F3.367490314949232
sVperhaps
p918
F4.023464374049485
sVpay
p919
F2.8132995994756285
sVadministration
p920
F4.035964536813717
sVmember
p921
F3.032976942813352
sVparty
p922
F2.799506277343293
sVnegotiate
p923
F4.043857237612626
sVdocument
p924
F3.045161601829719
sVdifficult
p925
F3.914693531105615
sVweek
p926
F1.9267047162704876
sVjeffrey
p927
F3.753010605557882
sVpractice
p928
F3.820396779307965
sVhttp
p929
F1.9403417277576178
sVupon
p930
F3.4264040723620375
sVeffect
p931
F3.774568326632861
sVdirector
p932
F2.99728921337028
sVharris
p933
F4.080988218187672
sVtransaction
p934
F2.8534466674890404
sVcenter
p935
F3.028373942741391
sVmention
p936
F3.4799491128034723
sVwhole
p937
F3.91052396286889
sVwell
p938
F2.1134618875562006
sVthought
p939
F3.490828639878609
sVwithout
p940
F3.0610489615920384
sVcorporation
p941
F3.7146561077816562
sVcoordinate
p942
F4.061443622114702
sVposition
p943
F2.7046112937251277
sVmodel
p944
F3.455014606403303
sVsummer
p945
F3.966133442310377
sVless
p946
F3.461190188447453
sVmoney
p947
F3.4953969438489887
sVexecutive
p948
F3.2649540900531675
sVobtain
p949
F3.8764374999500784
sVrest
p950
F3.7215211233013363
sVpaul
p951
F3.2967262490535045
sVweekly
p952
F3.8764374999500784
sVweb
p953
F3.0158238635871024
sVapplication
p954
F3.409454514048264
sVsupply
p955
F3.3012409294080314
sVsmith
p956
F2.985120921635717
sVday
p957
F1.896823699560948
sVcc
p958
F1.5611982254469994
sVadd
p959
F2.7592323782053527
sV4
p960
F2.570353420865239
sVca
p961
F3.019231021908717
sVmatch
p962
F4.079344832443942
sVreal
p963
F3.3626671544738027
sVaround
p964
F3.0539567332825466
sVgovernment
p965
F3.711241192681587
sVread
p966
F3.375580973969386
sVfyi
p967
F3.109661205647132
sVexecute
p968
F3.9202801378142547
sVearly
p969
F2.9709285436792117
sVtest
p970
F3.5645860669311142
sVfive
p971
F3.80530215308548
sVknow
p972
F1.3532858999113722
sVdesk
p973
F3.1228234138424584
sVpress
p974
F3.773358405130148
sVworld
p975
F3.2922318594656654
sVpassword
p976
F3.8499809304132477
sVrecipient
p977
F3.3650758268547145
sVloss
p978
F3.676620202893881
sVnecessary
p979
F3.501827834179279
sVlike
p980
F1.7938173692284871
sVsuccess
p981
F3.90223662262032
sVbenefit
p982
F3.4656247855153186
sVeither
p983
F2.977453852314134
sVjanuary
p984
F2.6500633347317195
sVbecome
p985
F3.1786096020512415
sVpage
p986
F3.226432922223972
sVdynegy
p987
F4.06791613662032
sVgrowth
p988
F3.974970024110875
sVtable
p989
F3.7412319063652695
sVhome
p990
F3.063424259620946
sVpeter
p991
F4.021912783358067
sVoperation
p992
F2.8987969716340434
sVconfirm
p993
F3.019231021908717
sVavoid
p994
F4.0328248168090495
sVlegal
p995
F2.9687628687667145
sVcritical
p996
F3.8254793823714306
sVleader
p997
F4.0141907372641565
sVlocate
p998
F3.672239034878318
sVbusiness
p999
F2.202628640739922
sVschedule
p1000
F1.8150875836774099
sVability
p1001
F3.8040544922873245
sValthough
p1002
F3.4718664464387947
sVok
p1003
F3.5470758919243117
sVpackage
p1004
F4.094233444937693
sVindustry
p1005
F3.2271329572543093
sVbasis
p1006
F2.817939979032131
sVscott
p1007
F3.3554757531256953
sVstand
p1008
F4.006527864518588
sVact
p1009
F3.6646178765972452
sVrevise
p1010
F3.559691294554386
sVsoftware
p1011
F4.031258645776305
sVown
p1012
F4.053411450417438
sVpreviously
p1013
F3.982393963182157
sVcommunication
p1014
F3.243370518385993
sVwashington
p1015
F3.72843359322196
sVthree
p1016
F3.010170937284314
sVweather
p1017
F3.9530232763861695
sVdetermine
p1018
F3.371527462136203
sVgary
p1019
F3.7146561077816562
sVquickly
p1020
F3.8578446668734623
sVintervention
p1021
F4.028133643233169
sVadditional
p1022
F2.7163073334883188
sVprepare
p1023
F3.498147977220879
sVarea
p1024
F3.016390917755969
sVtransfer
p1025
F3.871089893623483
sVstrictly
p1026
F3.552878616136879
sVstart
p1027
F1.9745700888096342
sVlow
p1028
F3.3467559198327
sVlot
p1029
F3.3812836370815678
sVfunction
p1030
F3.969070301983687
sVbillion
p1031
F3.6570543613400006
sVbuy
p1032
F2.975818528973403
sVnorth
p1033
F2.727716711426477
sVcomplete
p1034
F2.68446672763266
sVenough
p1035
F3.629451759673109
sVhr
p1036
F4.06791613662032
sVregard
p1037
F1.9430528061028802
sVvolume
p1038
F2.985670825416415
sVhi
p1039
F3.1601027949352067
sVestoppel
p1040
F3.899489368145181
sVgain
p1041
F3.950133100963936
sVlonger
p1042
F3.8525953109873186
sVpull
p1043
F3.9530232763861695
sVoctober
p1044
F2.235334672872009
sVwhether
p1045
F3.1772762685203775
sVwish
p1046
F3.4401736530857945
sVj
p1047
F2.5998323424919505
sVrecord
p1048
F3.4781473105142093
sVlimit
p1049
F3.2877575790707443
sVsite
p1050
F3.020938964253873
sVdistribution
p1051
F3.0318242049335438
sVpm
p1052
F1.3377105903847049
sVagree
p1053
F2.9048667930011187
sVfirm
p1054
F3.010170937284314
sVtaylor
p1055
F3.8318691804702016
sVcertain
p1056
F3.663533865650987
sVmeasure
p1057
F4.102601694608209
sVam
p1058
F3.8447725853061097
sVdirection
p1059
F3.997409260302153
sVgeneral
p1060
F3.1432192770051524
sVtogether
p1061
F3.171298170344869
sVfile
p1062
F1.7835148520469248
sVeric
p1063
F3.8040544922873245
sVfill
p1064
F3.911911888143738
sVpersonnel
p1065
F4.079344832443942
sVpercent
p1066
F4.018816805652938
sVdetail
p1067
F2.5696274680202897
sV40
p1068
F3.8357227497861914
sVevent
p1069
F3.0569057180207038
sVfield
p1070
F3.6128366318625145
sVbook
p1071
F3.060456017607871
sV5
p1072
F2.6477066957777238
sVny
p1073
F4.023464374049485
sVmonday
p1074
F2.068280588208843
sVseparate
p1075
F4.080988218187672
sVjune
p1076
F3.3334276159039327
sVm
p1077
F2.393128343977769
sVstay
p1078
F3.4917406326458784
sVchance
p1079
F3.559691294554386
sVimportant
p1080
F3.192717998645692
sVlog
p1081
F2.638724014796329
sVchris
p1082
F3.0486703773593984
sVbuilding
p1083
F4.031258645776305
sVmartin
p1084
F3.9343847439957966
sVrule
p1085
F3.683228156453913
sVeol
p1086
F3.982393963182157
sVwrite
p1087
F2.9569347738797496
sVu
p1088
F1.8670905471105057
sVoriginal
p1089
F1.3694353865342601
s.