(dp0
Voperation close database unknown
p1
F5.075062697949419
sVnorth america corp 1400
p2
F5.270807275075514
sVevidence bind enforceable contract
p3
F3.90223662262032
sVfinal schedule find preferred
p4
F5.223304941090511
sVclose database error dbcaps97data
p5
F5.053083791230644
sVsender reply enron corp
p6
F4.0391141457166135
sVintend recipient review use
p7
F3.9077538779950745
sVdownload fail manual intervention
p8
F4.183064658644309
sVprivilege material sole use
p9
F3.8967496404040607
sVnew york stock exchange
p10
F5.238889672107209
sVauthorize receive recipient please
p11
F3.9077538779950745
sVprohibit intend recipient authorize
p12
F3.911911888143738
sVmessage parse file portlandwestdeskcalifornia
p13
F2.9243346209455083
sVmay contain confidential privilege
p14
F3.875097915021022
sVcorp 1400 smith street
p15
F5.265416426440638
sVemail property enron corp
p16
F4.028133643233169
sVanyone basis contract estoppel
p17
F3.906371707768123
sVvince j kaminskihouect subject
p18
F5.218163541590092
sVcorp andor relevant affiliate
p19
F3.944377689393315
sVfree download msn explorer
p20
F5.0795170482988
sVancillary schedule award variance
p21
F3.0545458349196126
sVplease feel free contact
p22
F5.057441096599599
sVdbcaps97data error dbcaps97data perform
p23
F5.070628100881553
sVcreate evidence bind enforceable
p24
F3.90223662262032
sVuse distribution disclosure others
p25
F3.909137961261013
sVenroncom delete copy message
p26
F4.0391141457166135
sVmessage nelson michelle send
p27
F5.303777294313084
sVproperty enron corp andor
p28
F4.028133643233169
sVyahoo group subject http
p29
F5.173043106309622
sVconfidential privilege material sole
p30
F3.8967496404040607
sVlog message parse file
p31
F2.9207198480964656
sVoffer acceptance create evidence
p32
F3.9049914452991645
sVservice c reuters limit
p33
F5.31501336758001
sVc reuters limit 2001
p34
F5.33210780093931
sVintend recipient authorize receive
p35
F3.906371707768123
sVmonday october 22 2001
p36
F5.075062697949419
sVschedule award variance detect
p37
F3.0545458349196126
sVemail attachment hereto intend
p38
F3.909137961261013
sVpreferred schedule detail transtype
p39
F5.223304941090511
sVwebsite view today s
p40
F5.373169287737084
sVvisit website view today
p41
F5.373169287737084
sVrecipient please contact sender
p42
F3.8525953109873186
sVdisclosure others strictly prohibit
p43
F3.911911888143738
sVunknown database alias dbcaps97data
p44
F5.075062697949419
sVfail manual intervention require
p45
F4.183064658644309
sVparse file portlandwestdeskcalifornia schedulingiso
p46
F2.9243346209455083
sVschedule find preferred schedule
p47
F5.223304941090511
sVretrieve hourahead price data
p48
F4.764315352566642
sVegroupscom use yahoo group
p49
F5.33210780093931
sVreply enron corp enronmessagingadministration
p50
F4.047031843453398
sVrecipient party may rely
p51
F3.9133017424327927
sVdetail transtype final scid
p52
F5.223304941090511
sVrely anyone basis contract
p53
F3.9049914452991645
sVmsn explorer http explorermsncomintlasp
p54
F5.349499543651179
sVprice data process continue
p55
F4.764315352566642
sVvariance detect variance detect
p56
F5.192845733605802
sVget free download msn
p57
F5.08399132869372
sVreceive email error please
p58
F5.320679105115687
sVtuesday november 20 2001
p59
F5.163286931364258
sVintervention require log message
p60
F4.889044279274138
sVthursday october 25 2001
p61
F5.270807275075514
sVoriginal message nelson michelle
p62
F5.292666068888013
sVhourahead price data process
p63
F4.764315352566642
sVcorp enronmessagingadministration enroncom delete
p64
F4.047031843453398
sVsend tuesday november 20
p65
F5.3671991207505805
sVvariance detect log message
p66
F3.179276936076674
sVbasis contract estoppel otherwise
p67
F3.914693531105615
sVunsubscribe group send email
p68
F5.320679105115687
sVschedule variance find table
p69
F5.287156413077044
sVdow jones company inc
p70
F4.725971997368995
sVj kaminskihouect cc subject
p71
F4.8853610338578415
sVoriginal message maggi mike
p72
F4.938203515232222
sVerror dbcaps97data perform operation
p73
F5.053083791230644
sVschedule download fail manual
p74
F4.183064658644309
sVsend thursday october 25
p75
F5.33787150565606
sVplease contact sender reply
p76
F3.8953825861925275
sVenron corp affiliate intend
p77
F4.048622933685641
sVsole use intend recipient
p78
F3.8764374999500784
sVplease let know need
p79
F5.33787150565606
sV2000 dow jones company
p80
F4.993994874860637
sVreuters english news service
p81
F5.292666068888013
sVmanual intervention require log
p82
F4.889044279274138
sVerror retrieve hourahead price
p83
F4.764315352566642
sVwednesday october 24 2001
p84
F5.238889672107209
sVdistribution disclosure others strictly
p85
F3.909137961261013
sVmessage email attachment hereto
p86
F3.903613085329043
sVenron power marketing inc
p87
F5.177957121112052
sVdatabase error dbcaps97data perform
p88
F5.053083791230644
sVplease let u know
p89
F5.1112657466133795
sVperform operation close database
p90
F5.053083791230644
sVcopy message email attachment
p91
F3.9049914452991645
sVrequire log message parse
p92
F4.981774763525862
sVacceptance create evidence bind
p93
F3.9049914452991645
sVtaylor mark e legal
p94
F5.093000398636087
sVcc vince j kaminskihouect
p95
F4.949899554995413
sVcontract enron corp affiliate
p96
F4.045443280768261
sVparty may rely anyone
p97
F3.9160872595542187
sVdetect log message parse
p98
F3.1812816143290523
sVandor relevant affiliate may
p99
F3.9049914452991645
sVfile portlandwestdeskcalifornia schedulingiso final
p100
F2.9222674367468433
sVrecipient review use distribution
p101
F3.914693531105615
sVgroup subject http docsyahoocominfoterms
p102
F5.173043106309622
sVoperation close database error
p103
F5.053083791230644
sVplease let know thanks
p104
F4.957773611426319
sVamerica corp 1400 smith
p105
F5.270807275075514
sVenron corp enronmessagingadministration enroncom
p106
F4.047031843453398
sVaward variance detect variance
p107
F5.192845733605802
sVtuesday october 23 2001
p108
F5.276227342544853
sVsend monday november 19
p109
F5.168153121015431
sVothers strictly prohibit intend
p110
F3.91052396286889
sVsend monday october 22
p111
F5.144055569436371
sVpm vince j kaminskihouect
p112
F5.197858275429347
sVcorp affiliate intend recipient
p113
F3.969070301983687
sVenron north america corp
p114
F4.764315352566642
sVreview use distribution disclosure
p115
F3.903613085329043
sVenforceable contract enron corp
p116
F4.043857237612626
sVdatabase unknown database alias
p117
F5.075062697949419
sVattachment hereto intend offer
p118
F3.909137961261013
sVfind preferred schedule detail
p119
F5.223304941090511
sVvince j kaminskihouect cc
p120
F4.537919765866055
sVcopyright c 2001 dow
p121
F4.8853610338578415
sVcontain confidential privilege material
p122
F3.8981185660114024
sVintend recipient party may
p123
F3.9133017424327927
sVenron corp andor relevant
p124
F4.028133643233169
sVhereto intend offer acceptance
p125
F3.909137961261013
sVvince forward vince j
p126
F5.057441096599599
sVplease feel free call
p127
F5.31501336758001
sVmaterial sole use intend
p128
F3.8967496404040607
sVcopyright 2000 dow jones
p129
F5.0063661666631845
sValias dbcaps97data error dbcaps97data
p130
F5.070628100881553
sVclose database unknown database
p131
F5.075062697949419
sVfederal energy regulatory commission
p132
F5.144055569436371
sVblackberry wireless handheld wwwblackberrynet
p133
F4.849256029215725
sVaffiliate may contain confidential
p134
F3.903613085329043
sVschedule final schedule find
p135
F5.25472113732389
sVmay rely anyone basis
p136
F3.9049914452991645
sVschedule detail transtype final
p137
F5.223304941090511
sVthursday october 18 2001
p138
F5.33210780093931
sValias dbcaps97data unknown database
p139
F5.075062697949419
sVoriginal message kitchen louise
p140
F4.063057827469243
sVstrictly prohibit intend recipient
p141
F3.8872192755533668
sVcopyright 2001 commissionercom inc
p142
F5.233667728126058
sVdbcaps97data unknown database alias
p143
F5.075062697949419
sVs gas power price
p144
F5.373169287737084
sVcompany inc right reserve
p145
F4.790719526763152
sVcontract estoppel otherwise thank
p146
F3.9188805574598313
sV2001 commissionercom inc sportslinecom
p147
F5.1878581920947635
sVc 2001 dow jones
p148
F4.8853610338578415
sVdelete copy message email
p149
F3.9049914452991645
sVintend offer acceptance create
p150
F3.9077538779950745
sVrelevant affiliate may contain
p151
F3.9049914452991645
sVenronmessagingadministration enroncom delete copy
p152
F4.047031843453398
sVuse intend recipient review
p153
F3.9077538779950745
sVnews service c reuters
p154
F5.303777294313084
sVschedule log message parse
p155
F5.192845733605802
sVsend blackberry wireless handheld
p156
F4.636091177951412
sVjones company inc right
p157
F4.804187743814019
sVhourahead schedule download fail
p158
F4.235413058400472
sVaward variance detect log
p159
F3.179276936076674
sVdownload msn explorer http
p160
F5.08399132869372
sVuse yahoo group subject
p161
F5.0795170482988
sVmonday october 29 2001
p162
F5.33787150565606
sVmonday november 19 2001
p163
F5.03157758600968
sVbind enforceable contract enron
p164
F4.035964536813717
sVlet know question thanks
p165
F5.027331295128229
sVfriday october 26 2001
p166
F5.33210780093931
sVmonday november 26 2001
p167
F5.33210780093931
sVreceive recipient please contact
p168
F3.9049914452991645
sVplease visit website view
p169
F5.373169287737084
sVrecipient authorize receive recipient
p170
F3.909137961261013
sVgas power price news
p171
F5.373169287737084
sVdatabase alias dbcaps97data unknown
p172
F5.075062697949419
sVpower price news click
p173
F5.373169287737084
sV2001 dow jones company
p174
F4.874392002487268
sVdbcaps97data perform operation close
p175
F5.053083791230644
sVview today s gas
p176
F5.373169287737084
sVenglish news service c
p177
F5.298206249263629
sVmessage kitchen louise sent
p178
F5.0063661666631845
sVcontact sender reply enron
p179
F4.0391141457166135
sVplease let know question
p180
F4.439073931229422
sVforward vince j kaminskihouect
p181
F4.863541986463202
sVaffiliate intend recipient party
p182
F3.9077538779950745
sVtoday s gas power
p183
F5.373169287737084
sVmessage kitchen louise send
p184
F4.530157760530566
sVsend wednesday october 24
p185
F5.349499543651179
sVdatabase alias dbcaps97data error
p186
F5.075062697949419
s.