(dp0
S''
p1
F2.975818528973403
sVrepresent
p2
F3.667876977798152
sVcode
p3
F3.7697373993631955
sVevidence
p4
F3.552878616136879
sVconsider
p5
F3.1065527169768647
sVlimited
p6
F4.00805574869664
sVglobal
p7
F3.0289481603856503
sVconcern
p8
F2.94102775766541
sVfocus
p9
F3.365880008643128
sVmonth
p10
F2.456532067230733
sVfour
p11
F3.5270274877355945
sVmanager
p12
F2.9730989189207615
sVnotify
p13
F3.4763487488782943
sVlegal
p14
F2.9687628687667145
sVhereto
p15
F3.8670978723539453
sVgo
p16
F1.7160771650965732
sVfollow
p17
F1.796325941494758
sVsettlement
p18
F3.69881867268303
sVincrease
p19
F3.1259829741328264
sVsystem
p20
F2.3097224044344657
sVtx
p21
F3.5794157999021645
sVelectricity
p22
F3.6843337397616627
sVeffort
p23
F3.0814211460729157
sVavoid
p24
F4.0328248168090495
sVthursday
p25
F2.2734546933085342
sVenvironment
p26
F4.079344832443942
sV0
p27
F3.8090545027040306
sVfinally
p28
F4.074430817641513
sVprogram
p29
F3.1146549738276192
sVaward
p30
F2.8568258645255193
sVsuite
p31
F4.009585970877408
sVsorry
p32
F3.54900639445437
sVinclude
p33
F2.074232330675996
sVpresentation
p34
F3.5204330220103137
sVworth
p35
F4.005002311209751
sVsent
p36
F2.9008161545512734
sVbrown
p37
F3.761339029664364
sVfax
p38
F2.3052556186715147
sVconfirmation
p39
F4.005002311209751
sVstreet
p40
F3.177942713063538
sVrisk
p41
F2.6583555836289743
sVconfidential
p42
F3.0324004077728794
sVoutside
p43
F3.5626252819891735
sVfar
p44
F3.364272291255031
sVdollar
p45
F3.8525953109873186
sV6
p46
F2.916091400646278
sVrise
p47
F4.009585970877408
sV713
p48
F2.77381182796851
sVtelephone
p49
F3.985379040025611
sVasset
p50
F3.314908568136695
sVportland
p51
F4.026574796463878
sVevery
p52
F3.2483651773600837
sVdifficult
p53
F3.914693531105615
sVdecide
p54
F3.5055212825146307
sVfall
p55
F3.6463476209455763
sVaffect
p56
F3.785524005293836
sVticket
p57
F4.047031843453398
sVdifference
p58
F3.9989232651333677
sVminute
p59
F3.6777185006429436
sVlaura
p60
F4.0892459034266535
sVschool
p61
F3.8344365759754475
sVlevel
p62
F3.1772762685203775
sVtransmission
p63
F3.5045966407474123
sVcause
p64
F3.653830285468248
sVlist
p65
F2.1891452904026347
sVwednesday
p66
F2.232740637694963
sVtry
p67
F2.619470435830194
sVitem
p68
F3.423843251500364
sVteam
p69
F2.5396037689985875
sVquick
p70
F4.000439565651332
sVlisa
p71
F3.6015717917993735
sVguy
p72
F3.3256696250929934
sVprobably
p73
F3.1732869015273435
sVenjoy
p74
F3.9329652973415703
sVtel
p75
F3.947251254589047
sVandor
p76
F3.123454527779468
sVjames
p77
F3.150327546030564
sVmiller
p78
F3.9329652973415703
sVpaso
p79
F3.927307573621712
sVdirect
p80
F3.2455080325593038
sVsign
p81
F2.9104633479292765
sVpast
p82
F3.0492563721022146
sVacross
p83
F3.8344365759754475
sVlikely
p84
F3.4019199451263247
sVcost
p85
F2.790867896733722
sVdesign
p86
F3.853905068869382
sVpass
p87
F3.694339381878984
sVdownload
p88
F3.532714706856184
sVclick
p89
F2.684059810027859
sVeven
p90
F2.8277554352603596
sVindex
p91
F3.903613085329043
sVmaterial
p92
F3.0486703773593984
sVappear
p93
F3.284785808681587
sVrichard
p94
F3.2376927174693115
sVsection
p95
F3.71010547421766
sVresume
p96
F3.8831624748577522
sVfeedback
p97
F3.906371707768123
sVremain
p98
F2.9747297972382065
sVcurrent
p99
F2.6298213045538503
sVversion
p100
F3.359464589686928
sVcapital
p101
F3.492653457903238
sVnew
p102
F1.7509863702247574
sVnet
p103
F3.3610645900282616
sV1400
p104
F3.8591613227582093
sVever
p105
F3.8344365759754475
sVpublic
p106
F3.387019007166312
sVimpact
p107
F3.523253898351955
sVfull
p108
F3.2201545618728473
sVtransportation
p109
F3.8178651323861854
sVlee
p110
F4.100922433088489
sVexchange
p111
F3.539390935754928
sVmarketing
p112
F3.246221553816832
sVnever
p113
F3.6657030638985324
sVcommercial
p114
F3.4515027502917635
sVsave
p115
F3.7055754551459095
sVlet
p116
F1.6066913820146782
sVaddress
p117
F2.512852130286118
sValong
p118
F3.3960987228667086
sVstrong
p119
F3.689880065682219
sVchange
p120
F1.9393752639731026
sVwait
p121
F3.6036105284892215
sVbox
p122
F4.0892459034266535
sVgreat
p123
F2.7050266623707673
sVproperty
p124
F3.4375773729601624
sVsender
p125
F3.281083471983051
sVahead
p126
F3.810308421363624
sVschedulingiso
p127
F2.9222674367468433
sVk
p128
F3.71010547421766
sV30
p129
F2.933168141623033
sVexperience
p130
F3.364272291255031
sVlater
p131
F3.270058001971343
sVprior
p132
F3.1866471536936842
sVamount
p133
F3.1203029336171233
sVsuggestion
p134
F4.028133643233169
sVpick
p135
F3.810308421363624
sVaction
p136
F3.1839607853891008
sVopinion
p137
F3.9883730542382154
sVbob
p138
F3.1995068909793782
sVauthorize
p139
F3.575439651522525
sVvia
p140
F3.2892467826222123
sVlove
p141
F3.8912926009410027
sVmail
p142
F3.254823757399495
sVfamily
p143
F3.9188805574598313
sVwin
p144
F4.0375381012611475
sVenroncom
p145
F2.573262513825923
sVmanage
p146
F3.2036024598441153
sVprefer
p147
F3.6976969675738296
sVnatural
p148
F3.158140085767358
sVprivate
p149
F3.960285472427954
sVreplace
p150
F3.9676007940043267
sVregulatory
p151
F3.7010658646399346
sVsend
p152
F1.1025928642869582
sVfyi
p153
F3.109661205647132
sVperhaps
p154
F4.023464374049485
sVapply
p155
F3.7157970092174475
sVgreg
p156
F3.4656247855153186
sVestablish
p157
F3.853905068869382
sVobligation
p158
F4.011118538227186
sVselect
p159
F3.754196142151984
sVnothing
p160
F3.90223662262032
sVuse
p161
F1.7861634217130773
sVfee
p162
F3.8254793823714306
sVfeb
p163
F4.09590150203839
sVdiscus
p164
F3.3699106469092976
sVwould
p165
F1.3987057688343731
sVfill
p166
F3.911911888143738
sVetc
p167
F3.2899922168721605
sVvisit
p168
F3.0045497870138846
sVcharge
p169
F3.17196064138599
sVnext
p170
F2.1819785724675413
sVlive
p171
F3.8578446668734623
sVcall
p172
F1.5826037250089389
sVtherefore
p173
F3.573457490318534
sVassistance
p174
F3.74240355266216
sVtype
p175
F3.2215463505456694
sVtell
p176
F2.77916659310617
sVtoday
p177
F2.0700403774883354
sV1000
p178
F3.812820985499507
sVtax
p179
F3.792895046038426
sVcompany
p180
F2.176086092859736
sVimprove
p181
F3.9617442618916137
sVaware
p182
F3.842178550129063
sVplant
p183
F3.3626671544738027
sVphone
p184
F2.536088826891143
sVparticular
p185
F4.064674642696149
sVok
p186
F3.5470758919243117
sVhold
p187
F2.8072991198974098
sViii
p188
F4.0892459034266535
sVbehalf
p189
F3.927307573621712
sVmust
p190
F2.977453852314134
sVcustomer
p191
F2.7487610783380574
sVhigh
p192
F2.68446672763266
sVaccount
p193
F2.8937667799410445
sVkaminski
p194
F3.544187108018421
sVjoin
p195
F3.185974884760802
sVroom
p196
F3.354679891563592
sVhour
p197
F2.2484067544393618
sVf
p198
F3.673332528699689
sV1999
p199
F4.051812729053741
sVchallenge
p200
F4.0328248168090495
sVwork
p201
F1.7089936738214588
sVportlandwestdeskcalifornia
p202
F2.9217513077031274
sVmw
p203
F3.9676007940043267
sVclient
p204
F3.8512872663273034
sVmr
p205
F3.723819974888447
sVtranswestern
p206
F4.097572346203208
sVmeet
p207
F2.373254157770685
sVdec
p208
F3.931547862660597
sVexample
p209
F3.811563914309456
sVcontrol
p210
F3.204971385451457
sVclaim
p211
F3.868426776203999
sVfigure
p212
F3.9530232763861695
sVgive
p213
F1.9947850484515217
sVprocess
p214
F2.45071621885073
sVdecember
p215
F2.9321248447104558
sVshare
p216
F3.166014142198264
sVelectronic
p217
F3.9216816797395433
sVaccept
p218
F3.685440546736854
sVinvolve
p219
F3.4917406326458784
sVway
p220
F2.566367186197404
sVsomething
p221
F3.2512305088333697
sVwant
p222
F1.9411155718666546
sVhandle
p223
F3.6865485800912157
sVstandard
p224
F3.54900639445437
sVdavid
p225
F2.68446672763266
sVoccur
p226
F3.8764374999500784
sVguarantee
p227
F3.924490670350598
sVena
p228
F3.382100964466667
sVunited
p229
F3.9329652973415703
sVend
p230
F2.488134433769107
sVgoal
p231
F3.9588288079314897
sVsteve
p232
F2.8655680280213853
sVsit
p233
F3.7673306593326306
sVrather
p234
F3.6865485800912157
sVie
p235
F3.925898130118478
sVtravel
p236
F4.045443280768261
sVsix
p237
F3.98987342961345
sVmike
p238
F2.7306960709404184
sVspreadsheet
p239
F3.90223662262032
sVdelay
p240
F3.8499809304132477
sVbrian
p241
F3.5985214589817502
sVsunday
p242
F3.585409823842375
sVstrategy
p243
F3.643157825577476
sVattachment
p244
F3.035864614470549
sVinterview
p245
F3.6357543015439115
sVinstead
p246
F3.925898130118478
sVflow
p247
F3.314908568136695
sVstand
p248
F4.006527864518588
sVproduct
p249
F2.9043595649912586
sVemployee
p250
F2.8096027375943025
sVbuilding
p251
F4.031258645776305
sVattend
p252
F3.2620492223605373
sVinformation
p253
F1.7904823653036777
sVmay
p254
F1.6832424780998607
sVoverall
p255
F4.0892459034266535
sVearlier
p256
F3.6211096883557135
sVspot
p257
F4.001958168828522
sVreflect
p258
F3.6452832248897895
sVproduce
p259
F3.855216544467193
sVannounce
p260
F3.4480031841654992
sVdate
p261
F1.7227443732964358
sVpresident
p262
F3.1542261864462215
sVlaw
p263
F3.649547623676247
sVdata
p264
F2.7645094353061963
sVresponse
p265
F3.2685970813316687
sVa
p266
F3.3126176163901393
sVpurchase
p267
F3.0393408636259096
sVshort
p268
F3.3027503636568856
sVphysical
p269
F3.675523110079508
sVremember
p270
F3.6999416374276537
sVeffective
p271
F3.3042620797422075
sVsusan
p272
F3.5824083208386184
sVmaybe
p273
F3.9530232763861695
sVregister
p274
F3.966133442310377
sVappreciate
p275
F3.3057760845734228
sVst
p276
F3.8003208227352756
sVprovide
p277
F2.130857664274746
sVchief
p278
F3.6463476209455763
sVmaintain
p279
F3.8912926009410027
sVresponsibility
p280
F3.799079357647211
sVagenda
p281
F4.087588902219024
sVenter
p282
F3.2569859204039906
sVoperate
p283
F3.3699106469092976
sVorder
p284
F2.654793339608715
sVtalk
p285
F2.5761800943054447
sVvolume
p286
F2.985670825416415
sVhouston
p287
F2.2734546933085342
sVleast
p288
F3.3731468956885062
sVmarket
p289
F2.206406506963404
sVconversation
p290
F3.970541972595143
sVseptember
p291
F2.916091400646278
sVmove
p292
F2.66671716927622
sVsoon
p293
F2.863131973223504
sVmeter
p294
F3.9133017424327927
sVentity
p295
F3.4367134420208987
sVcourse
p296
F3.4799491128034723
sVpaper
p297
F3.6865485800912157
sVlondon
p298
F3.4427766914319564
sVcommittee
p299
F3.5904324361086664
sVnovember
p300
F2.3684950768074318
sVstill
p301
F2.40137392436452
sV24
p302
F3.2132245272081774
sV25
p303
F3.0169582936577144
sV26
p304
F3.2063421875852356
sV27
p305
F3.452379558765298
sV20
p306
F2.6092256108817695
sVthank
p307
F2.1753519682702986
sV22
p308
F3.326442721381982
sV23
p309
F3.387019007166312
sVpersonal
p310
F3.7033181178442596
sVfix
p311
F3.9202801378142547
sVjim
p312
F3.2635006014251844
sV28
p313
F3.5774257494941546
sV29
p314
F3.4917406326458784
sVactually
p315
F3.785524005293836
sVlate
p316
F2.784100444783366
sVproduction
p317
F3.4935671171719127
sVchoose
p318
F3.98987342961345
sVrelate
p319
F3.3295410972146517
sVstephen
p320
F3.982393963182157
sVderivative
p321
F4.085934642122997
sVholiday
p322
F3.964668240583049
sVmight
p323
F2.8641056831349054
sVtexas
p324
F2.9818278341372473
sVsomeone
p325
F3.285527923743475
sVreturn
p326
F2.9655231251123038
sVfinance
p327
F3.4462579830244686
sVentire
p328
F3.9676007940043267
sVceo
p329
F4.056616581366386
sVpropose
p330
F3.240527588255159
sVdan
p331
F3.8578446668734623
sVpractice
p332
F3.820396779307965
sVcover
p333
F3.2334554229937966
sVbreak
p334
F3.8912926009410027
sVlunch
p335
F4.071168172006697
sVhalf
p336
F3.9458134398194193
sVfront
p337
F4.011118538227186
sVfeature
p338
F3.9588288079314897
sVnov
p339
F3.7661294579869966
sVinvestor
p340
F3.9230851887418634
sVdiscuss
p341
F2.650850116833675
sVbank
p342
F3.519494495428049
sVterm
p343
F2.7087727645663797
sVseveral
p344
F3.0011922013190384
sVname
p345
F2.3801352619601595
sVjanuary
p346
F2.6500633347317195
sVuniversity
p347
F3.7649296977950923
sVdrop
p348
F3.702191357161669
sVl
p349
F3.0899318357408245
sVaffiliate
p350
F3.4019199451263247
sVquarter
p351
F3.7412319063652695
sVside
p352
F3.5204330220103137
sVmean
p353
F3.207714871397208
sVel
p354
F3.829308359608528
sVeveryone
p355
F3.2084019205482464
sVfinancial
p356
F2.788155417674603
sVdirectly
p357
F3.411978705544171
sVgeneration
p358
F3.7782068994767695
sVhouse
p359
F3.7010658646399346
sVenergy
p360
F2.155491785360992
sVsteven
p361
F3.770942945018544
sVreduce
p362
F3.575439651522525
sVidea
p363
F3.4700791358646987
sVrelated
p364
F3.8777788817742795
sVgroup
p365
F2.0439632805581365
sVtrading
p366
F2.6808104164295496
sVexpect
p367
F2.786801932243527
sVyear
p368
F2.180994078171928
sVhttp
p369
F1.9403417277576178
sVhappen
p370
F3.5270274877355945
sVsummary
p371
F3.4187411996164685
sVsaturday
p372
F3.704446149548758
sVspecial
p373
F3.4953969438489887
sVreally
p374
F3.158140085767358
sVcanada
p375
F3.6810206500387026
sVlarge
p376
F3.119673804939562
sVnetwork
p377
F3.6442199605684595
sVp
p378
F3.182620302614649
sVprofit
p379
F4.0909056548450184
sVmiss
p380
F3.494481611977301
sVrobert
p381
F2.9622938435115884
sVsince
p382
F2.654793339608715
sVmonitor
p383
F3.9720158122134435
sVpublish
p384
F3.6118072956934
sVresearch
p385
F3.0545458349196126
sVcontent
p386
F3.7553830859115123
sVre
p387
F3.1329693474208065
sVhear
p388
F3.086883982116571
sV7
p389
F3.1065527169768647
sVinternet
p390
F3.540348331711255
sVprint
p391
F3.909137961261013
sVintervention
p392
F4.028133643233169
sVissue
p393
F2.1386087306792483
sVcorrect
p394
F3.617999265941321
sVassociate
p395
F3.110284064589723
sVfrank
p396
F3.671146735479709
sVmillion
p397
F3.2577076815324
sVstory
p398
F3.9458134398194193
sVfree
p399
F2.58351150544275
sVeffect
p400
F3.774568326632861
sVsmall
p401
F3.498147977220879
sVreason
p402
F3.286270589949166
sVbase
p403
F2.6783802815762576
sVcalifornia
p404
F3.102835240576732
sVyork
p405
F3.322583202889804
sVask
p406
F2.4649929052074127
sVestimate
p407
F3.4935671171719127
sVbusiness
p408
F2.202628640739922
sVgenerate
p409
F3.853905068869382
sVwall
p410
F3.9588288079314897
sVcare
p411
F3.839591226564112
sVadvance
p412
F3.799079357647211
sVg
p413
F4.085934642122997
sVlaunch
p414
F3.9838853877688276
sVcould
p415
F2.0691600957413505
sVput
p416
F2.74054836738343
sV21
p417
F3.321043556704211
sVkeep
p418
F2.669921016630281
sVthing
p419
F2.8758647603280245
sVamerican
p420
F3.452379558765298
sVplace
p421
F2.6739403146456726
sVw
p422
F3.115907322144085
sVdavis
p423
F3.7953641830953475
sVretail
p424
F4.084283114084525
sVthink
p425
F2.089605252336526
sVsouth
p426
F3.812820985499507
sVfirst
p427
F2.306091622621557
sVrespond
p428
F3.387019007166312
sVmajor
p429
F3.516684189128794
sValready
p430
F2.83814268634965
sVrevenue
p431
F3.925898130118478
sVfeel
p432
F2.938925812593038
sVthird
p433
F3.5606683342022127
sVnumber
p434
F2.099079719780446
sVone
p435
F1.8116810056938832
sVlong
p436
F2.8611873931260496
sVanother
p437
F2.7733668891402576
sVcarry
p438
F3.9794177705091114
sVforce
p439
F3.761339029664364
sVmessage
p440
F1.0310761950689127
sVopen
p441
F2.864592893863179
sS'tomorrow'
p442
F2.972555883338587
sVcity
p443
F3.556765890225281
sVlittle
p444
F3.2222429719601178
sVmanagement
p445
F2.5920096168107416
sVsheet
p446
F3.7330685957261083
sVservice
p447
F2.0422487494908963
sVindicate
p448
F3.4727613010846383
sVtop
p449
F3.3233539158373953
sVinternal
p450
F3.970541972595143
sVapproximately
p451
F3.899489368145181
sVgrow
p452
F3.976450409281309
sVanyone
p453
F2.9840220204262313
sVattach
p454
F2.0129186588761767
sV2
p455
F1.9707750178410826
sVmaster
p456
F3.889932981424963
sVstock
p457
F3.555792654138729
sVstatement
p458
F3.675523110079508
sVtim
p459
F3.6657030638985324
sVdraft
p460
F3.2173767823089445
sVwhite
p461
F3.8845129139556236
sVjohn
p462
F2.3687918567472863
sVenforceable
p463
F3.8872192755533668
sVfinal
p464
F2.3467742346062175
sVfriend
p465
F3.9486911396470346
sVdiscussion
p466
F3.05160379102052
sVhard
p467
F3.5073731348957042
sVoption
p468
F2.842900069251919
sVrelationship
p469
F3.982393963182157
sVseason
p470
F3.7697373993631955
sVtom
p471
F3.411136600231249
sVserve
p472
F3.6005539800066724
sVimmediate
p473
F4.09590150203839
sVpart
p474
F2.7976814593186634
sVunsubscribe
p475
F3.6810206500387026
sVshirley
p476
F3.9617442618916137
sVjuly
p477
F3.1873198748761347
sS'copy'
p478
F2.3708717861852784
sVdaren
p479
F3.828030404163036
sV11
p480
F2.99728921337028
sV10
p481
F2.5329359078315274
sVkind
p482
F3.708971044147048
sVb
p483
F3.3507100570526807
sV15
p484
F2.8031659337608232
sVtarget
p485
F3.8644453509048144
sV17
p486
F3.1739506917940004
sV16
p487
F3.1806129416194167
sV19
p488
F3.133606899243486
sV18
p489
F3.2526662592594744
sVrequire
p490
F2.480471561023538
sVdatabase
p491
F3.944377689393315
sVrate
p492
F2.9730989189207615
sVproject
p493
F2.7702578482170606
sVmatter
p494
F3.435850256814087
sVr
p495
F3.3141443342439394
sVwilliams
p496
F3.5204330220103137
sVbind
p497
F3.6788180059763604
sVsan
p498
F3.5045966407474123
sVmind
p499
F3.8981185660114024
sVsay
p500
F2.307486517533182
sVneed
p501
F1.4640246723989185
sVkaminskihouect
p502
F3.775779713819158
sVseem
p503
F3.29522587367827
sVturn
p504
F3.3944417216590788
sVseek
p505
F3.8318691804702016
sVkevin
p506
F3.060456017607871
sVcomplete
p507
F2.68446672763266
sVsell
p508
F2.9473602326523296
sVinform
p509
F3.942943997391467
sVoffer
p510
F2.464012993321064
sVable
p511
F2.706273804498741
sVinvestment
p512
F3.4638485861140627
sVnote
p513
F2.374447475334727
sValso
p514
F1.7606342984144776
sVwithout
p515
F3.0610489615920384
sVbuild
p516
F3.441908258898003
sVonline
p517
F3.045745543452152
sVancillary
p518
F3.00175101664512
sVperformance
p519
F3.6689657095333486
sS'many'
p520
F2.74054836738343
sVhello
p521
F4.072798164217628
sVcourt
p522
F4.005002311209751
sV200
p523
F3.792895046038426
sVplay
p524
F3.429828733243401
sVsure
p525
F2.6020786931183246
sVunless
p526
F3.7261241233732973
sVallow
p527
F2.998960057535098
sVthough
p528
F3.614898488263073
sVtrack
p529
F3.673332528699689
sVpark
p530
F4.003479081669228
sVprice
p531
F2.1953649895176945
sVreach
p532
F3.246935584550489
sVattempt
p533
F3.7782068994767695
sVdetect
p534
F3.0056714921230845
sVplan
p535
F2.2619186834179272
sVletter
p536
F3.2306405020639866
sVorganization
p537
F3.6474131511476147
sVpossible
p538
F2.6751492609948113
sVfuture
p539
F2.885770735338905
sVsally
p540
F3.687657842545501
sVclass
p541
F4.0422737060069815
sVmichelle
p542
F3.54900639445437
sVespecially
p543
F4.048622933685641
sVhourahead
p544
F2.78185476676797
sVclear
p545
F3.4145092847098883
sVlose
p546
F3.532714706856184
sVm
p547
F2.393128343977769
sVsale
p548
F2.8457654007252056
sVface
p549
F3.6976969675738296
sVestoppel
p550
F3.899489368145181
sVsenior
p551
F3.485374080900337
sVfiling
p552
F3.98987342961345
sVfact
p553
F3.501827834179279
sVreserve
p554
F3.2391091483010253
sVthomas
p555
F3.9400827651104344
sVcurrently
p556
F2.753110802464523
sVreply
p557
F2.9867715409926006
sVshow
p558
F2.8151531681249513
sVtext
p559
F4.051812729053741
sVlay
p560
F3.8777788817742795
sVwatch
p561
F3.966133442310377
sVbring
p562
F2.9922933661769084
sVsession
p563
F3.9202801378142547
sVrelation
p564
F4.05822300741466
sVparticipate
p565
F3.685440546736854
sVportfolio
p566
F4.0126534579452695
sVfine
p567
F3.950133100963936
sVfind
p568
F2.1896414452131108
sVhelp
p569
F2.1542934628688832
sVanswer
p570
F3.3586655484937955
sVaccess
p571
F2.817939979032131
sVbelieve
p572
F2.783201568318349
sVoffice
p573
F2.3170237567243688
sVcopyright
p574
F3.5724678811333677
sVlouise
p575
F2.9048667930011187
sVdaily
p576
F2.9752740149387136
sVexplain
p577
F3.9530232763861695
sVfw
p578
F2.839092354037357
sV3
p579
F2.313647276307763
sVjan
p580
F3.6657030638985324
sVrick
p581
F3.6015717917993735
sVpretty
p582
F3.9617442618916137
sVequity
p583
F3.8845129139556236
sVfuel
p584
F3.8040544922873245
sV8
p585
F3.2084019205482464
sVlocal
p586
F3.9343847439957966
sVoct
p587
F3.638920531101961
sVhope
p588
F2.8142259543357593
sVdo
p589
F2.9033458801604124
sVdistribute
p590
F3.970541972595143
sVhit
p591
F3.8872192755533668
sVget
p592
F1.5211124383268366
sVassistant
p593
F3.8015638309748727
sVexpress
p594
F3.8140796389067035
sVstop
p595
F3.735394178169584
sV13
p596
F3.2635006014251844
sV12
p597
F2.855376238758255
sVdespite
p598
F4.099245986761237
sVreport
p599
F2.188897305280471
sVsuggest
p600
F3.3507100570526807
sVtrade
p601
F2.6975762967822554
sVcomment
p602
F2.6575628764927353
sV14
p603
F3.2490807408968774
sVbankruptcy
p604
F3.991376059497985
sVresolve
p605
F3.7769925702443676
sVresource
p606
F2.9922933661769084
sVh
p607
F3.8254793823714306
sVboard
p608
F3.4772476253433116
sVremove
p609
F3.7215211233013363
sVmorning
p610
F2.727716711426477
sVbad
p611
F3.80530215308548
sVensure
p612
F3.324897126020201
sVcontain
p613
F2.8803103097585887
sVrelease
p614
F3.357867145257771
sVenronmessagingadministration
p615
F4.021912783358067
sVconduct
p616
F4.053411450417438
sVview
p617
F2.794041782871214
sVuser
p618
F3.315673386529617
sVeurope
p619
F3.6484798179154168
sVrequirement
p620
F3.501827834179279
sVset
p621
F2.5871974661216735
sVreference
p622
F3.6602888655076598
sVnational
p623
F3.760144999671756
sVaccord
p624
F3.4691866770816793
sVsee
p625
F1.7105293006588551
sVindividual
p626
F3.1127793871571243
sVresult
p627
F2.90639002254164
sVfail
p628
F3.4153542361754523
sVclose
p629
F2.7890587601027894
sVnews
p630
F2.9709285436792117
sVpaul
p631
F3.2967262490535045
sVbest
p632
F2.54596196774108
sVsubject
p633
F1.005618177236988
sV02
p634
F4.087588902219024
sV01
p635
F3.748282464361936
sVcapacity
p636
F3.1445079369773
sVfederal
p637
F3.747103913842492
sVreview
p638
F2.0911781096431428
sVparticipant
p639
F3.6581313673676386
sVplease
p640
F0.8417939032313515
sVwo
p641
F3.8015638309748727
sVstate
p642
F2.6873197966150664
sVunable
p643
F3.707837899549879
sVvarious
p644
F3.711241192681587
sVprogress
p645
F3.9343847439957966
sVyesterday
p646
F3.2271329572543093
sVprevious
p647
F3.8015638309748727
sVapproach
p648
F3.6810206500387026
sVemail
p649
F1.5432269934451688
sVavailable
p650
F2.3133664168760615
sVken
p651
F3.7388927240120973
sVnotice
p652
F3.228534499179598
sVsole
p653
F3.6420968175203816
sVgeorge
p654
F3.7215211233013363
sVaugust
p655
F3.100364578418163
sVextend
p656
F3.833152054283091
sVimportance
p657
F3.761339029664364
sVattention
p658
F3.7637313753029837
sVdeliver
p659
F3.467404145415396
sVhowever
p660
F2.5754499007717233
sVjr
p661
F3.842178550129063
sVjob
p662
F3.26932727486539
sVjoe
p663
F3.3318711953562743
sVkey
p664
F3.3459669651566677
sVpercent
p665
F4.018816805652938
sVarticle
p666
F4.006527864518588
sVdebt
p667
F4.051812729053741
sVcome
p668
F2.307765730155406
sVdistribution
p669
F3.0318242049335438
sVkitchen
p670
F3.387841037627727
sVc
p671
F2.8263473148681038
sVlast
p672
F2.137194969840568
sValways
p673
F3.605653430119022
sVcountry
p674
F3.9049914452991645
sVregion
p675
F3.796601041632744
sVannual
p676
F3.9632051825312886
sS'contract'
p677
F2.2376750718079346
sVapril
p678
F3.367490314949232
sVs
p679
F1.0496316452841459
sVvariance
p680
F2.9873223534548883
sVexpense
p681
F3.8591613227582093
sVapprove
p682
F3.4384420509215166
sVll
p683
F2.622143723654816
sVotherwise
p684
F3.2015525787026715
sVload
p685
F3.6211096883557135
sVamong
p686
F3.8140796389067035
sVrelevant
p687
F3.5298670542436725
sVco
p688
F3.5685192086779516
sVpoint
p689
F2.5336356979230663
sVcc
p690
F1.5611982254469994
sVtuesday
p691
F2.242895652706939
sVothers
p692
F3.063424259620946
sVperiod
p693
F3.272986261750432
sVkaren
p694
F3.780639990701411
sVfile
p695
F1.7835148520469248
sVsimply
p696
F3.903613085329043
sVapproval
p697
F3.0844523699761988
sVcancel
p698
F3.9559218291401805
sVrespect
p699
F3.9989232651333677
sV100
p700
F3.2222429719601178
sVspeak
p701
F3.1548774401325415
sVconference
p702
F2.9720131424840157
sVdecline
p703
F3.9928809506774052
sVlight
p704
F3.8090545027040306
sVraise
p705
F3.707837899549879
sVsecond
p706
F3.216683541379968
sVsource
p707
F3.354679891563592
sVaddition
p708
F3.2236376723256672
sVwest
p709
F3.1620693639072477
sVcreate
p710
F2.68446672763266
sVacceptance
p711
F3.750643740547616
sVdue
p712
F2.587566810539538
sVmark
p713
F2.428100188827047
sVcommission
p714
F3.4665140697002026
sVmuch
p715
F2.5667289152662787
sVpg
p716
F3.91052396286889
sVinterest
p717
F2.808680653619334
sVcertain
p718
F3.663533865650987
sVprivilege
p719
F3.3960987228667086
sVproposal
p720
F3.839591226564112
sVenron
p721
F1.8613557643684675
sS'meeting'
p722
F2.285944673758427
sVmary
p723
F3.3475454974497176
sV500
p724
F3.673332528699689
sV4
p725
F2.570353420865239
sVwebsite
p726
F3.28182284355093
sVlife
p727
F3.9301324342572665
sVwish
p728
F3.4401736530857945
sVcommodity
p729
F3.71010547421766
sVvince
p730
F2.8082199302755475
sVgas
p731
F1.988880521473356
sVandrew
p732
F4.0391141457166135
sVelse
p733
F3.339677636249104
sVfund
p734
F3.6463476209455763
sVdave
p735
F3.430686734154038
sVunderstand
p736
F3.0551352838019907
sVtw
p737
F3.8617998467163903
sVdemand
p738
F3.4890071457502176
sVreceive
p739
F1.8443461409440962
sVgeneral
p740
F3.1432192770051524
sVformer
p741
F4.079344832443942
sVpresent
p742
F3.4393074771979455
sVcase
p743
F2.9585394813650514
sVmain
p744
F3.909137961261013
sVlook
p745
F1.9721715267962223
sVleave
p746
F2.7205178660246623
sVbill
p747
F2.733256891802092
sVcash
p748
F3.2292360074510884
sVvalue
p749
F2.890260640611757
sVn
p750
F4.031258645776305
sVtechnical
p751
F4.084283114084525
sVnear
p752
F3.8460721306481953
sVerror
p753
F3.0062328168641774
sVsituation
p754
F3.6527578993064953
sVbalance
p755
F3.649547623676247
sVstudy
p756
F4.055012731784411
sVprocedure
p757
F4.017272403801565
sVago
p758
F3.6005539800066724
sVsupply
p759
F3.3012409294080314
sVve
p760
F2.994510661985556
sVcell
p761
F3.3723368510917617
sValmost
p762
F4.035964536813717
sVj
p763
F2.5998323424919505
sVsite
p764
F3.020938964253873
sVparse
p765
F2.9171180947816393
sVplayer
p766
F3.974970024110875
sVgood
p767
F2.210452024490992
sVready
p768
F3.5794157999021645
sVpartner
p769
F3.820396779307965
sVactivity
p770
F3.2271329572543093
sVtechnology
p771
F3.4718664464387947
sVid
p772
F3.3985893841791603
sVdifferent
p773
F3.4145092847098883
sVpas
p774
F3.9077538779950745
sVdevelop
p775
F3.3507100570526807
sVgrant
p776
F4.00805574869664
sVperform
p777
F3.7261241233732973
sVpay
p778
F2.8132995994756285
sVmake
p779
F1.6772785421282332
sVadministration
p780
F4.035964536813717
sVeric
p781
F3.8040544922873245
sVmember
p782
F3.032976942813352
sV1
p783
F1.9440228323696496
sV9
p784
F3.3195062773853246
sVparty
p785
F2.799506277343293
sVadvise
p786
F3.3952698790563076
sVdocument
p787
F3.045161601829719
sVsolution
p788
F3.685440546736854
sVbid
p789
F3.820396779307965
sVeuropean
p790
F4.009585970877408
sVdevelopment
p791
F3.0463298262616454
sVindependent
p792
F3.9049914452991645
sVjeffrey
p793
F3.753010605557882
sVoil
p794
F3.6887683368295283
sVcounterparty
p795
F3.7377251815560593
sVupon
p796
F3.4264040723620375
sVnegotiate
p797
F4.043857237612626
sVhand
p798
F3.723819974888447
sVdirector
p799
F2.99728921337028
sVaverage
p800
F3.727278191591404
sVharris
p801
F4.080988218187672
sVcondition
p802
F3.68212379411086
sVpurpose
p803
F3.4790478058474594
sVkim
p804
F3.744750971580465
sVopportunity
p805
F2.910973682209298
sVimplement
p806
F4.006527864518588
sVrecent
p807
F3.2649540900531675
sVtransaction
p808
F2.8534466674890404
sVcenter
p809
F3.028373942741391
sVmention
p810
F3.4799491128034723
sVwhole
p811
F3.91052396286889
sVwell
p812
F2.1134618875562006
sVagency
p813
F3.9720158122134435
sVanalysis
p814
F3.5157491726978876
sVthought
p815
F3.490828639878609
sVperson
p816
F3.072982277427051
sVcontact
p817
F1.9374451340552294
sVpersonnel
p818
F4.079344832443942
sVcoordinate
p819
F4.061443622114702
sVposition
p820
F2.7046112937251277
sVmodel
p821
F3.455014606403303
sV800
p822
F3.935806208343174
sVcorporate
p823
F3.4682950140711974
sVspend
p824
F3.754196142151984
sVsummer
p825
F3.966133442310377
sVresponsible
p826
F3.730748409070411
sVexecute
p827
F3.9202801378142547
sVless
p828
F3.461190188447453
sVmoney
p829
F3.4953969438489887
sVexecutive
p830
F3.2649540900531675
sVobtain
p831
F3.8764374999500784
sVrest
p832
F3.7215211233013363
sVidentify
p833
F3.6118072956934
sVthanks
p834
F1.3288581772162134
sVllc
p835
F3.911911888143738
sVworld
p836
F3.2922318594656654
sVyes
p837
F3.609751796511304
sVrecommend
p838
F3.903613085329043
sVyet
p839
F3.0838453896844222
sVaway
p840
F3.639978172660096
sVweekly
p841
F3.8764374999500784
sVbegin
p842
F2.8008770794770714
sVweb
p843
F3.0158238635871024
sVcut
p844
F3.672239034878318
sVfield
p845
F3.6128366318625145
sVjeff
p846
F2.8803103097585887
sVsmith
p847
F2.985120921635717
sVday
p848
F1.896823699560948
sVkimberly
p849
F3.960285472427954
sVadd
p850
F2.7592323782053527
sVpotential
p851
F3.356272248587955
sVlocation
p852
F3.4953969438489887
sVeasy
p853
F3.8140796389067035
sV31
p854
F3.4799491128034723
sVeast
p855
F3.589425893497265
sVca
p856
F3.019231021908717
sVmatch
p857
F4.079344832443942
sVtake
p858
F1.8909163536023161
sVreal
p859
F3.3626671544738027
sVmarch
p860
F3.190015294297807
sVaround
p861
F3.0539567332825466
sVgovernment
p862
F3.711241192681587
sVread
p863
F3.375580973969386
sVbig
p864
F3.179276936076674
sVcouple
p865
F3.5213724302522498
sVcredit
p866
F2.841470476442325
sVfebruary
p867
F3.0979000053900014
sVearly
p868
F2.9709285436792117
sVdepartment
p869
F3.3467559198327
sVgame
p870
F3.756571440180891
sVfive
p871
F3.80530215308548
sVknow
p872
F1.3532858999113722
sVdesk
p873
F3.1228234138424584
sVpress
p874
F3.773358405130148
sVimmediately
p875
F3.281083471983051
sVpassword
p876
F3.8499809304132477
sVrecipient
p877
F3.3650758268547145
sVd
p878
F2.781406235699675
sVloss
p879
F3.676620202893881
sVnecessary
p880
F3.501827834179279
sVlike
p881
F1.7938173692284871
sVsuccess
p882
F3.90223662262032
sVstrictly
p883
F3.552878616136879
sVmanual
p884
F3.9486911396470346
sV50
p885
F3.5176200806336992
sVspecific
p886
F3.467404145415396
sVmichael
p887
F2.925887818254908
sVbenefit
p888
F3.4656247855153186
sVcontinue
p889
F2.470563950256868
sVeither
p890
F2.977453852314134
sVnight
p891
F3.4019199451263247
sVbecome
p892
F3.1786096020512415
sVsecurity
p893
F3.298981041440594
sVpage
p894
F3.226432922223972
sVtwo
p895
F2.3286468500136612
sVright
p896
F2.5118242048915116
sVold
p897
F3.672239034878318
sVdeal
p898
F2.1419152995870494
sVpeople
p899
F2.6551885184322734
sVstaff
p900
F3.332649102824519
sVback
p901
F2.2129888092101018
sVdynegy
p902
F4.06791613662032
sVprohibit
p903
F3.272253392534779
sVgrowth
p904
F3.974970024110875
sVlearn
p905
F3.736559000665877
sVpricing
p906
F3.970541972595143
sVinvoice
p907
F3.9838853877688276
sVtable
p908
F3.7412319063652695
sVdear
p909
F3.339677636249104
sVhome
p910
F3.063424259620946
sVpeter
p911
F4.021912783358067
sVelectric
p912
F3.617999265941321
sVtotal
p913
F2.890260640611757
sVrecently
p914
F3.5774257494941546
sVoperation
p915
F2.8987969716340434
sVconfirm
p916
F3.019231021908717
sVdecision
p917
F3.2744536134443814
sVshall
p918
F3.7553830859115123
sVper
p919
F2.7383982913025107
sVweek
p920
F1.9267047162704876
sVeverything
p921
F3.830587950314153
sVcritical
p922
F3.8254793823714306
sVunit
p923
F3.231343489790653
sVquote
p924
F4.0422737060069815
sVleader
p925
F4.0141907372641565
sVofficer
p926
F3.653830285468248
sVlocate
p927
F3.672239034878318
sVmailto
p928
F2.7125329528280298
sVrun
p929
F2.8597314355769337
sVpower
p930
F2.1680402125661042
sVschedule
p931
F1.8150875836774099
sV300
p932
F3.9301324342572665
sVword
p933
F3.5764322074352766
sVmartin
p934
F3.9343847439957966
sVagreement
p935
F2.5957270932108742
sVability
p936
F3.8040544922873245
sVstep
p937
F3.4445158223050836
sVcorp
p938
F2.4019874213162775
sValthough
p939
F3.4718664464387947
sVchairman
p940
F3.69657651927734
sVpost
p941
F3.0393408636259096
sVproceed
p942
F3.8254793823714306
sVpipeline
p943
F3.17196064138599
sVactual
p944
F4.0422737060069815
sVanything
p945
F3.0434118201059315
sVpackage
p946
F4.094233444937693
sVindustry
p947
F3.2271329572543093
sVbasis
p948
F2.817939979032131
sVscott
p949
F3.3554757531256953
sVrange
p950
F4.099245986761237
sVplus
p951
F4.031258645776305
sVafternoon
p952
F3.387019007166312
sVact
p953
F3.6646178765972452
sVsept
p954
F4.064674642696149
sVbook
p955
F3.060456017607871
sVrevise
p956
F3.559691294554386
sVsoftware
p957
F4.031258645776305
sVdisclosure
p958
F3.3195062773853246
sVferc
p959
F3.6506165708651523
sVown
p960
F4.053411450417438
sVsignificant
p961
F3.651686661924997
sVfacility
p962
F3.5213724302522498
sVpreviously
p963
F3.982393963182157
sVcommunication
p964
F3.243370518385993
sVwithin
p965
F2.943661417338872
sVwashington
p966
F3.72843359322196
sVthree
p967
F3.010170937284314
sV77002
p968
F4.047031843453398
sVappropriate
p969
F3.581409818509029
sVweather
p970
F3.9530232763861695
sVdetermine
p971
F3.371527462136203
sVgary
p972
F3.7146561077816562
sVquickly
p973
F3.8578446668734623
sVutility
p974
F3.3927874615630524
sVrely
p975
F3.587415842569241
sVamerica
p976
F2.783201568318349
sVcomputer
p977
F3.9188805574598313
sVadditional
p978
F2.7163073334883188
sVprepare
p979
F3.498147977220879
sVarea
p980
F3.016390917755969
sVtransfer
p981
F3.871089893623483
sVsupport
p982
F2.6477066957777238
sVinitial
p983
F3.9573742622204953
sVquestion
p984
F1.7070008778833625
sVsubmit
p985
F3.5298670542436725
sVpayment
p986
F3.3650758268547145
sVstart
p987
F1.9745700888096342
sVlow
p988
F3.3467559198327
sVlot
p989
F3.3812836370815678
sVforward
p990
F1.8115109810398988
sVhappy
p991
F3.512017825085029
sVfunction
p992
F3.969070301983687
sVbillion
p993
F3.6570543613400006
sVhead
p994
F3.2796063668400377
sVbuy
p995
F2.975818528973403
sVnorth
p996
F2.727716711426477
sVinvite
p997
F4.029694923800122
sVform
p998
F2.8912611409453404
sVenough
p999
F3.629451759673109
sVhr
p1000
F4.06791613662032
sVsound
p1001
F3.9676007940043267
sVregard
p1002
F1.9430528061028802
sVdelivery
p1003
F3.244795020051378
sVhi
p1004
F3.1601027949352067
sVlink
p1005
F3.0324004077728794
sVgain
p1006
F3.950133100963936
sVline
p1007
F2.8059194921780057
sVrole
p1008
F3.4862811104409794
sVanalyst
p1009
F3.5616463293901894
sVinfo
p1010
F3.4480031841654992
sVpull
p1011
F3.9530232763861695
sVoctober
p1012
F2.235334672872009
sVtrader
p1013
F3.357867145257771
sVfriday
p1014
F2.1189956807878594
sVwhether
p1015
F3.1772762685203775
sVwholesale
p1016
F3.5157491726978876
sVofficial
p1017
F3.786748745189732
sVattached
p1018
F3.080816002332815
sVus
p1019
F3.3731468956885062
sVlead
p1020
F3.2008702177072426
sVrecord
p1021
F3.4781473105142093
sVeconomic
p1022
F3.997409260302153
sVlimit
p1023
F3.2877575790707443
sVproblem
p1024
F2.743134575721463
sVpm
p1025
F1.3377105903847049
sVsimilar
p1026
F3.8434747265905096
sVagree
p1027
F2.9048667930011187
sVdelete
p1028
F3.2306405020639866
sVfirm
p1029
F3.010170937284314
sVtaylor
p1030
F3.8318691804702016
sVrequest
p1031
F2.282671348413458
sVmeasure
p1032
F4.102601694608209
sVam
p1033
F3.8447725853061097
sVdirection
p1034
F3.997409260302153
sVdrive
p1035
F3.637864006967761
sVsingle
p1036
F4.082634309094341
sVexist
p1037
F3.403589394595866
sVtogether
p1038
F3.171298170344869
sVpolicy
p1039
F3.4585388391258327
sVaccounting
p1040
F3.9734918272415642
sVcentral
p1041
F3.748282464361936
sVcheck
p1042
F2.8832850268753316
sVinc
p1043
F2.720096014088434
sVwrite
p1044
F2.9569347738797496
sVfloor
p1045
F3.6118072956934
sVcorporation
p1046
F3.7146561077816562
sVstorage
p1047
F3.8885752079645024
sVdetail
p1048
F2.5696274680202897
sV40
p1049
F3.8357227497861914
sVevent
p1050
F3.0569057180207038
sVapplication
p1051
F3.409454514048264
sVinterested
p1052
F3.243370518385993
sV5
p1053
F2.6477066957777238
sVtest
p1054
F3.5645860669311142
sVu
p1055
F1.8670905471105057
sVnt
p1056
F1.832296750421456
sVny
p1057
F4.023464374049485
sVpicture
p1058
F4.003479081669228
sVdraw
p1059
F4.005002311209751
sVintend
p1060
F2.8773444153452106
sVmonday
p1061
F2.068280588208843
sVseparate
p1062
F4.080988218187672
sVwelcome
p1063
F3.865770732145883
sVjune
p1064
F3.3334276159039327
sVupdate
p1065
F2.5294442841724742
sVstay
p1066
F3.4917406326458784
sVwilliam
p1067
F3.748282464361936
sVchance
p1068
F3.559691294554386
sVimportant
p1069
F3.192717998645692
sVlog
p1070
F2.638724014796329
sVchris
p1071
F3.0486703773593984
sVweekend
p1072
F3.500906599659958
sVstructure
p1073
F3.4781473105142093
sVjones
p1074
F3.4665140697002026
sVe
p1075
F2.68446672763266
sVlonger
p1076
F3.8525953109873186
sVvice
p1077
F3.754196142151984
sVassume
p1078
F3.404425165643262
sVrule
p1079
F3.683228156453913
sVeol
p1080
F3.982393963182157
sV2002
p1081
F2.261385350071952
sV2000
p1082
F2.749195200333154
sV2001
p1083
F1.2729537697989612
sVstatus
p1084
F3.064018966745224
sVtime
p1085
F1.516291929182503
sVpush
p1086
F4.102601694608209
sVinternational
p1087
F3.411978705544171
sVoriginal
p1088
F1.3694353865342601
sVrepresentative
p1089
F3.914693531105615
s.