(dp0
Vcorp andor relevant affiliate may
p1
F3.950133100963936
sVmay contain confidential privilege material
p2
F3.8981185660114024
sVlog message parse file portlandwestdeskcalifornia
p3
F2.9243346209455083
sVancillary schedule award variance detect
p4
F3.0545458349196126
sVrecipient review use distribution disclosure
p5
F3.9160872595542187
sVintend recipient review use distribution
p6
F3.914693531105615
sVcustomerduns 848921276 affiliateflag 0 pathname
p7
F5.480527806057584
sVlocate prefer revisedpreferred schedule match
p8
F5.379175311797296
sVwholesale service 1400 smith street
p9
F5.500730513375103
sVsend tuesday november 20 2001
p10
F5.3671991207505805
sVschedule final schedule find preferred
p11
F5.25472113732389
sVerror retrieve hourahead price data
p12
F4.764315352566642
sVsend wednesday october 24 2001
p13
F5.349499543651179
sVaward variance detect variance detect
p14
F5.192845733605802
sVhourahead schedule download fail manual
p15
F4.235413058400472
sVnews service c reuters limit
p16
F5.31501336758001
sVinc customerphone 713 8533801 customerfax
p17
F5.480527806057584
sVpreconfirmed yes ancsvclink na ancsvcreq
p18
F5.48721679420838
sVdownload msn explorer http explorermsncomintlasp
p19
F5.349499543651179
sVsign cbs sportslinecom fantasy football
p20
F5.428568067126872
sVenforceable contract enron corp affiliate
p21
F4.045443280768261
sVaward variance detect log message
p22
F3.179276936076674
sVsend monday october 29 2001
p23
F5.480527806057584
sVuse yahoo group subject http
p24
F5.173043106309622
sVenron corp affiliate intend recipient
p25
F4.048622933685641
sVsend monday november 26 2001
p26
F5.48721679420838
sVpostingref 0 saleref requestref dealref
p27
F5.480527806057584
sVwebsite view today s gas
p28
F5.373169287737084
sVschedule award variance detect log
p29
F3.179276936076674
sVcontain confidential privilege material sole
p30
F3.899489368145181
sVnorth america corp 1400 smith
p31
F5.270807275075514
sVrely anyone basis contract estoppel
p32
F3.906371707768123
sVhereto intend offer acceptance create
p33
F3.911911888143738
sVsend thursday october 25 2001
p34
F5.33787150565606
sVcopyright 2001 commissionercom inc sportslinecom
p35
F5.244139027993353
sVperform operation close database error
p36
F5.053083791230644
sVintend recipient authorize receive recipient
p37
F3.909137961261013
sVereports sign cbs sportslinecom fantasy
p38
F5.428568067126872
sVacceptance create evidence bind enforceable
p39
F3.9049914452991645
sVsend monday november 19 2001
p40
F5.168153121015431
sVcustomerphone 713 8533801 customerfax 713
p41
F5.480527806057584
sVanyone basis contract estoppel otherwise
p42
F3.9188805574598313
sVcbs sportslinecom fantasy football customize
p43
F5.428568067126872
sVdistribution disclosure others strictly prohibit
p44
F3.911911888143738
sVgas power price news click
p45
F5.373169287737084
sVdatabase unknown database alias dbcaps97data
p46
F5.075062697949419
sVrevisedpreferred schedule match final individual
p47
F5.379175311797296
sVplease visit website view today
p48
F5.373169287737084
sVprivilege material sole use intend
p49
F3.8967496404040607
sVnerccurtailmentpriority nerc priority 1 othercurtailmentpriority
p50
F5.480527806057584
sVindividual interchange schedule unable assign
p51
F5.379175311797296
sVdownload fail manual intervention require
p52
F4.183064658644309
sVreceive ereports sign cbs sportslinecom
p53
F5.428568067126872
sVuse distribution disclosure others strictly
p54
F3.909137961261013
sVmay rely anyone basis contract
p55
F3.9049914452991645
sVinterchange schedule unable assign deal
p56
F5.379175311797296
sVfind preferred schedule detail transtype
p57
F5.223304941090511
sVschedule find preferred schedule detail
p58
F5.223304941090511
sVclose database unknown database alias
p59
F5.075062697949419
sVmessage parse file portlandwestdeskcalifornia schedulingiso
p60
F2.9243346209455083
sVtoday s gas power price
p61
F5.373169287737084
sVdatabase alias dbcaps97data unknown database
p62
F5.075062697949419
sVstrictly prohibit intend recipient authorize
p63
F3.911911888143738
sV713 8533801 customerfax 713 6468272
p64
F5.480527806057584
sVsaleref requestref dealref negotiatedpriceflag status
p65
F5.480527806057584
sVenglish news service c reuters
p66
F5.303777294313084
sVintervention require log message parse
p67
F4.981774763525862
sVdatabase error dbcaps97data perform operation
p68
F5.053083791230644
sVschedule match final individual interchange
p69
F5.379175311797296
sVview today s gas power
p70
F5.373169287737084
sVepmi customerduns 848921276 affiliateflag 0
p71
F5.480527806057584
sValias dbcaps97data unknown database alias
p72
F5.075062697949419
sVc 2001 dow jones company
p73
F4.8853610338578415
sVevidence bind enforceable contract enron
p74
F4.035964536813717
sVsend thursday october 18 2001
p75
F5.4939508263897245
sVenergy importexport schedule final schedule
p76
F5.500730513375103
sVintend offer acceptance create evidence
p77
F3.9077538779950745
sVprefer revisedpreferred schedule match final
p78
F5.379175311797296
sVenroncom delete copy message email
p79
F4.0391141457166135
sVenron corp andor relevant affiliate
p80
F4.028133643233169
sVcustomerfax 713 6468272 customeremail billrust
p81
F5.480527806057584
sVretrieve hourahead price data process
p82
F4.764315352566642
sVuse intend recipient review use
p83
F3.9077538779950745
sVnerc priority 1 othercurtailmentpriority default
p84
F5.480527806057584
sVdbcaps97data perform operation close database
p85
F5.053083791230644
sVparse file portlandwestdeskcalifornia schedulingiso final
p86
F2.9243346209455083
sVprohibit intend recipient authorize receive
p87
F3.911911888143738
sVmanual intervention require log message
p88
F4.889044279274138
sVaffiliate may contain confidential privilege
p89
F3.903613085329043
sVsole use intend recipient review
p90
F3.9077538779950745
sVfinal schedule find preferred schedule
p91
F5.223304941090511
sVunknown database alias dbcaps97data error
p92
F5.075062697949419
sVschedule award variance detect variance
p93
F5.192845733605802
sVdisclosure others strictly prohibit intend
p94
F3.911911888143738
sVrecipient party may rely anyone
p95
F3.9160872595542187
sVcontact sender reply enron corp
p96
F4.0391141457166135
sVoperation close database unknown database
p97
F5.075062697949419
sVaffiliate intend recipient party may
p98
F3.9174829331931935
sVfree download msn explorer http
p99
F5.08399132869372
sVgmt0600 central time u canada
p100
F5.403566764921455
sV2001 dow jones company inc
p101
F4.874392002487268
sVdatabase alias dbcaps97data error dbcaps97data
p102
F5.075062697949419
sV0 saleref requestref dealref negotiatedpriceflag
p103
F5.480527806057584
sVreuters english news service c
p104
F5.298206249263629
sVunknown database alias dbcaps97data unknown
p105
F5.075062697949419
sVdbcaps97data error dbcaps97data perform operation
p106
F5.070628100881553
sVfinal individual interchange schedule unable
p107
F5.379175311797296
sVdbcaps97data unknown database alias dbcaps97data
p108
F5.075062697949419
sVintend recipient party may rely
p109
F3.9133017424327927
sVhourahead price data process continue
p110
F4.764315352566642
sVoffer acceptance create evidence bind
p111
F3.9049914452991645
sVservice c reuters limit 2001
p112
F5.33210780093931
sVegroupscom use yahoo group subject
p113
F5.33210780093931
sVproperty enron corp andor relevant
p114
F4.028133643233169
sVreceive recipient please contact sender
p115
F3.906371707768123
sVparty may rely anyone basis
p116
F3.9160872595542187
sVcopy message email attachment hereto
p117
F3.906371707768123
sVschedule detail transtype final scid
p118
F5.223304941090511
sVpower marketing inc customerphone 713
p119
F5.480527806057584
sVjones company inc right reserve
p120
F4.804187743814019
sVenron corp enronmessagingadministration enroncom delete
p121
F4.050216559520918
sVbind enforceable contract enron corp
p122
F4.043857237612626
sVplease contact sender reply enron
p123
F4.0391141457166135
sVcreate evidence bind enforceable contract
p124
F3.90223662262032
sVbasis contract estoppel otherwise thank
p125
F3.9188805574598313
sVrequire log message parse file
p126
F4.981774763525862
sVsend blackberry wireless handheld wwwblackberrynet
p127
F4.859951318332474
sVcustomercode epmi customerduns 848921276 affiliateflag
p128
F5.480527806057584
sVconfidential privilege material sole use
p129
F3.8967496404040607
sVdetect log message parse file
p130
F3.1812816143290523
sVcorp affiliate intend recipient party
p131
F3.969070301983687
sV2000 dow jones company inc
p132
F4.993994874860637
sVoriginal message nelson michelle send
p133
F5.303777294313084
sVsportslinecom fantasy football customize reschedule
p134
F5.428568067126872
sVservice copyright c 2001 dow
p135
F5.441307092904302
sVcustomize reschedule turn report please
p136
F5.415989284920013
sVcontract enron corp affiliate intend
p137
F4.048622933685641
sVemail attachment hereto intend offer
p138
F3.909137961261013
sVrelevant affiliate may contain confidential
p139
F3.9049914452991645
sVsend tuesday october 23 2001
p140
F5.397412899347077
sVimportexport schedule final schedule find
p141
F5.500730513375103
sVcorp enronmessagingadministration enroncom delete copy
p142
F4.050216559520918
sVperform operation close database unknown
p143
F5.075062697949419
sVpm vince j kaminskihouect cc
p144
F5.379175311797296
sVerror dbcaps97data perform operation close
p145
F5.053083791230644
sVdow jones company inc right
p146
F4.804187743814019
sVandor relevant affiliate may contain
p147
F3.9049914452991645
sVreschedule turn report please click
p148
F5.415989284920013
sVvince forward vince j kaminskihouect
p149
F5.057441096599599
sVsend monday october 22 2001
p150
F5.144055569436371
sVvariance detect log message parse
p151
F3.1812816143290523
sVschedule log message parse file
p152
F5.192845733605802
sVclose database error dbcaps97data perform
p153
F5.053083791230644
sVpreferred schedule detail transtype final
p154
F5.223304941090511
sVschedule download fail manual intervention
p155
F4.183064658644309
sVenronmessagingadministration enroncom delete copy message
p156
F4.047031843453398
sVmatch final individual interchange schedule
p157
F5.379175311797296
sVattachment hereto intend offer acceptance
p158
F3.909137961261013
sVrecipient please contact sender reply
p159
F3.8953825861925275
sVfail manual intervention require log
p160
F4.889044279274138
sVfootball customize reschedule turn report
p161
F5.415989284920013
sVdelete copy message email attachment
p162
F3.9049914452991645
sVmaterial sole use intend recipient
p163
F3.906371707768123
sVvince j kaminskihouect cc subject
p164
F4.8853610338578415
sVrecipient authorize receive recipient please
p165
F3.909137961261013
sVyahoo group subject http docsyahoocominfoterms
p166
F5.173043106309622
sVvisit website view today s
p167
F5.373169287737084
sVpriority 1 othercurtailmentpriority default starttime
p168
F5.480527806057584
sV8533801 customerfax 713 6468272 customeremail
p169
F5.480527806057584
sVreview use distribution disclosure others
p170
F3.909137961261013
sVmarketing inc customerphone 713 8533801
p171
F5.480527806057584
sVs gas power price news
p172
F5.373169287737084
sVmessage email attachment hereto intend
p173
F3.909137961261013
sVact upon request request id
p174
F5.397412899347077
sVcopyright 2000 dow jones company
p175
F5.0063661666631845
sVcopyright c 2001 dow jones
p176
F4.8853610338578415
sVothers strictly prohibit intend recipient
p177
F3.911911888143738
sVreview act upon request request
p178
F5.397412899347077
sVsender reply enron corp enronmessagingadministration
p179
F4.047031843453398
sVschedule unable assign deal number
p180
F5.379175311797296
sVoriginal message kitchen louise sent
p181
F5.0063661666631845
sVreply enron corp enronmessagingadministration enroncom
p182
F4.047031843453398
sVsend wednesday october 17 2001
p183
F5.473883263338915
sVauthorize receive recipient please contact
p184
F3.9077538779950745
sVemail property enron corp andor
p185
F4.028133643233169
sValias dbcaps97data error dbcaps97data perform
p186
F5.070628100881553
sVfantasy football customize reschedule turn
p187
F5.415989284920013
sVoriginal message kitchen louise send
p188
F4.530157760530566
sVget free download msn explorer
p189
F5.08399132869372
sVoperation close database error dbcaps97data
p190
F5.053083791230644
s.