(dp0
Vkitchen louise sent
p1
F5.0063661666631845
sVaffiliate may contain
p2
F3.903613085329043
sVsend monday october
p3
F4.0328248168090495
sVemail attachment hereto
p4
F3.903613085329043
sVkitchen louise send
p5
F4.514812190855905
sVfeel free contact
p6
F4.870762234436689
sVmessage maggi mike
p7
F4.938203515232222
sVhouston tx 77002
p8
F4.7807360827789696
sVcopy message email
p9
F3.899489368145181
sVmanual intervention require
p10
F4.183064658644309
sVprivilege material sole
p11
F3.8967496404040607
sVanyone basis contract
p12
F3.9049914452991645
sVrecipient please contact
p13
F3.8512872663273034
sVthanks original message
p14
F4.342694804236192
sVlog message parse
p15
F2.9207198480964656
sVrequire log message
p16
F4.889044279274138
sVlet know question
p17
F3.826754079803431
sVcc vince j
p18
F4.8144092978855575
sVlet know thanks
p19
F4.535325730689008
sVc 2001 dow
p20
F4.8853610338578415
sVtranstype final scid
p21
F4.9266426928311455
sVreceive recipient please
p22
F3.9049914452991645
sVhouston texas 77002
p23
F4.716611554609431
sVdisclosure others strictly
p24
F3.909137961261013
sVreply enron corp
p25
F4.0391141457166135
sVcorp 1400 smith
p26
F4.922818596392742
sVproperty enron corp
p27
F4.028133643233169
sVenron corp affiliate
p28
F4.0422737060069815
sVpower marketing inc
p29
F4.859951318332474
sVplease let know
p30
F2.5598783386279482
sVplease call question
p31
F4.6447243250961145
sVnew york time
p32
F4.973710203689132
sVsend friday november
p33
F4.998101656813291
sVplease notify sender
p34
F4.953828833135303
sVschedule download fail
p35
F4.183064658644309
sVoctober 22 2001
p36
F4.993994874860637
sVcopyright c 2001
p37
F4.686028131237351
sVchief operate officer
p38
F4.957773611426319
sVbind enforceable contract
p39
F3.90223662262032
sVdow jones company
p40
F4.716611554609431
sVsend monday november
p41
F4.27256298046211
sVemail property enron
p42
F4.028133643233169
sVsend wednesday october
p43
F4.223962551612477
sVdelete copy message
p44
F3.8940173982671875
sVfile portlandwestdeskcalifornia schedulingiso
p45
F2.9222674367468433
sVjones company inc
p46
F4.725971997368995
sVothers strictly prohibit
p47
F3.91052396286889
sVvariance detect log
p48
F3.179276936076674
sVenron corp enronmessagingadministration
p49
F4.047031843453398
sVsteffes james d
p50
F4.674051940190635
sVancillary schedule award
p51
F3.0545458349196126
sVsee attach file
p52
F3.868426776203999
sVcontract estoppel otherwise
p53
F3.914693531105615
sVoriginal message maggi
p54
F4.938203515232222
sVdetect log message
p55
F3.179276936076674
sVuse distribution disclosure
p56
F3.903613085329043
sVquestion please call
p57
F4.680022107177138
sVdaren j farmerhouect
p58
F4.7807360827789696
sVfyi original message
p59
F4.849256029215725
sVplease contact sender
p60
F3.774568326632861
sVrecipient review use
p61
F3.9077538779950745
sV2000 dow jones
p62
F4.993994874860637
sVhereto intend offer
p63
F3.909137961261013
sVparty may rely
p64
F3.9133017424327927
sVlook forward hear
p65
F5.0358419847961375
sVcorp affiliate intend
p66
F3.969070301983687
sVpm vince j
p67
F4.969702182291593
sVconfidential privilege material
p68
F3.8953825861925275
sVbradford william s
p69
F4.794069613648435
sVnovember 19 2001
p70
F4.949899554995413
sVenron north america
p71
F4.194053780219904
sVattachment hereto intend
p72
F3.909137961261013
sVnorth america corp
p73
F4.026574796463878
sVplease give call
p74
F4.900176119642983
sVcorp andor relevant
p75
F3.944377689393315
sVlook forward see
p76
F4.90391444175359
sVstrictly prohibit intend
p77
F3.8858651792056373
sVaward variance detect
p78
F3.0545458349196126
sVestoppel otherwise thank
p79
F3.9188805574598313
sVbasis contract estoppel
p80
F3.90223662262032
sVprohibit intend recipient
p81
F3.8831624748577522
sVdistribution disclosure others
p82
F3.909137961261013
sVlet know need
p83
F4.408944189777393
sVvince j kaminski
p84
F4.522455540168473
sVandor relevant affiliate
p85
F3.8967496404040607
sVwireless handheld wwwblackberrynet
p86
F4.849256029215725
sVplease find attached
p87
F4.716611554609431
sVcompany inc right
p88
F4.790719526763152
sVsender reply enron
p89
F4.0391141457166135
sVenron corp andor
p90
F4.028133643233169
sVcontain confidential privilege
p91
F3.875097915021022
sVevidence bind enforceable
p92
F3.90223662262032
sVlet u know
p93
F4.397593330108704
sVcorp enronmessagingadministration enroncom
p94
F4.043857237612626
sVintend recipient authorize
p95
F3.8912926009410027
sVenronmessagingadministration enroncom delete
p96
F4.043857237612626
sVvince j kaminskihouect
p97
F3.7769925702443676
sVmay contain confidential
p98
F3.744750971580465
sVhourahead schedule download
p99
F4.235413058400472
sVacceptance create evidence
p100
F3.9049914452991645
sVj kaminskihouect cc
p101
F4.537919765866055
sVsend tuesday october
p102
F4.27256298046211
sV2001 dow jones
p103
F4.870762234436689
sVcopyright 2000 dow
p104
F5.0063661666631845
sVprice data process
p105
F4.764315352566642
sVblackberry wireless handheld
p106
F4.6275319245557425
sVparse file portlandwestdeskcalifornia
p107
F2.9243346209455083
sVdow jones newswires
p108
F5.0022253739971525
sVkaminskihouect cc subject
p109
F4.8853610338578415
sVcreate evidence bind
p110
F3.90223662262032
sVmkttype 2 transdate
p111
F4.583080161984908
sVchief executive officer
p112
F4.977734353988857
sV1400 smith street
p113
F4.197743821307357
sVknow question thanks
p114
F4.973710203689132
sVrelevant affiliate may
p115
F3.9049914452991645
sVrecipient authorize receive
p116
F3.906371707768123
sVsend wednesday january
p117
F4.787380625497638
sVmessage parse file
p118
F2.9207198480964656
sVdata process continue
p119
F4.764315352566642
sVsole use intend
p120
F3.8670978723539453
sVmessage email attachment
p121
F3.90223662262032
sVintend offer acceptance
p122
F3.9049914452991645
sVportlandwestdeskcalifornia schedulingiso final
p123
F2.9222674367468433
sVerror retrieve hourahead
p124
F4.764315352566642
sVdownload fail manual
p125
F4.183064658644309
sVintervention require log
p126
F4.889044279274138
sVcontract enron corp
p127
F4.035964536813717
sVretrieve hourahead price
p128
F4.764315352566642
sVforward vince j
p129
F4.863541986463202
sVhourahead price data
p130
F4.764315352566642
sVchief financial officer
p131
F4.938203515232222
sVreview use distribution
p132
F3.90223662262032
sVpresto kevin m
p133
F5.0358419847961375
sVinc right reserve
p134
F4.458076878355038
sVsend tuesday november
p135
F4.34056033170756
sVsecurity exchange commission
p136
F5.048745389632046
sVschedule award variance
p137
F3.0545458349196126
sVcontact sender reply
p138
F3.8953825861925275
sVenron wholesale service
p139
F4.878034993765769
sVrely anyone basis
p140
F3.9049914452991645
sVintend recipient party
p141
F3.903613085329043
sVsend wednesday november
p142
F4.741770114245586
sVenforceable contract enron
p143
F4.035964536813717
sVavailable view website
p144
F5.048745389632046
sVmonday october 22
p145
F5.044425728487529
sVplease see attached
p146
F4.707337917824102
sVrecipient party may
p147
F3.9133017424327927
sVuse intend recipient
p148
F3.873760122179362
sVaffiliate intend recipient
p149
F3.906371707768123
sVmonday november 19
p150
F4.969702182291593
sVintend recipient review
p151
F3.9077538779950745
sVauthorize receive recipient
p152
F3.9077538779950745
sVmaggi mike subject
p153
F5.044425728487529
sVenroncom delete copy
p154
F4.0391141457166135
sVfail manual intervention
p155
F4.183064658644309
sVoffer acceptance create
p156
F3.9049914452991645
sVmessage kitchen louise
p157
F4.063057827469243
sVsend friday october
p158
F4.4996985530458575
sVoriginal message kitchen
p159
F4.05983201822036
sVmaterial sole use
p160
F3.8967496404040607
sVsend thursday october
p161
F4.418118566053434
sVplease feel free
p162
F4.063057827469243
sVsend blackberry wireless
p163
F4.619045310678423
sVmay rely anyone
p164
F3.9049914452991645
sVsend thursday january
p165
F4.985831564221476
s.