(dp0
Vdatabas alia dbcaps97data error dbcaps97data perform oper close databas unknown
p1
F5.02279806385601
sVpassword first time ipayit user train materi click link http
p2
F5.69396633769718
sVcopi messag email attach hereto intend offer accept creat evid
p3
F3.8596472540503295
sVapsccom customernam enron power market inc customerphon 713 8533801 customerfax
p4
F5.4690851664844295
sVintend sole use individu entiti address receiv email error pleas
p5
F5.738418100268014
sVenron corp affili intend recipi parti may reli anyon basi
p6
F3.9963582995922318
sVschedul award varianc detect log messag pars file portlandwestdeskcalifornia schedulingiso
p7
F3.13035566852124
sVcorp andor relev affili may contain confidenti privileg materi sole
p8
F3.897868466870527
sVinc customerphon 713 8533801 customerfax 713 6468272 customeremail billrust enroncom
p9
F5.455291844352094
sVfirm tstype pointtopoint tsperiod offpeak tswindow fix tssubclass wheel nerccurtailmentprior
p10
F5.518917540232305
sVdow jone energi servic copyright c 2001 dow jone compani
p11
F5.668213841594766
sVconfidenti privileg materi sole use intend recipi review use distribut
p12
F3.86382262546081
sVdistribut disclosur other strictli prohibit intend recipi author receiv recipi
p13
F3.8596472540503295
sVdisclosur other strictli prohibit intend recipi author receiv recipi pleas
p14
F3.8596472540503295
sVancillari schedul award varianc detect log messag pars file portlandwestdeskcalifornia
p15
F3.13035566852124
sVclose databas unknown databas alia dbcaps97data unknown databas alia dbcaps97data
p16
F5.02279806385601
sVcustomerphon 713 8533801 customerfax 713 6468272 customeremail billrust enroncom reassignedref
p17
F5.455291844352094
sVereport sign cb sportslinecom fantasi footbal custom reschedul turn report
p18
F5.376303433033463
sVtswindow fix tssubclass wheel nerccurtailmentprior nerc prioriti 1 othercurtailmentprior default
p19
F5.462164723639856
sVother strictli prohibit intend recipi author receiv recipi pleas contact
p20
F3.8596472540503295
sValia dbcaps97data unknown databas alia dbcaps97data error dbcaps97data perform oper
p21
F5.02279806385601
sVdbcaps97data unknown databas alia dbcaps97data unknown databas alia dbcaps97data unknown
p22
F5.1866250380138
sVeurop european account payabl 442077837520 asiapacif sydney account payabl 61292292336
p23
F5.685308274954066
sVauthor receiv recipi pleas contact sender repli enron corp enronmessagingadministr
p24
F3.9947672093599897
sVcenter 713 3454727 europ european account payabl 442077837520 asiapacif sydney
p25
F5.685308274954066
sVvarianc detect load schedul log messag pars file portlandwestdeskcalifornia schedulingiso
p26
F5.6348774213271735
sVoper close databas error dbcaps97data perform oper close databas error
p27
F5.049826736243929
sVenronmessagingadministr enroncom delet copi messag email attach hereto intend offer
p28
F3.9947672093599897
sVhereto intend offer accept creat evid bind enforc contract enron
p29
F3.988428043916254
sVaffili may contain confidenti privileg materi sole use intend recipi
p30
F3.8624288970122063
sVipayitenroncom note ipayit user id password ehronlinesap personnel id password
p31
F5.69396633769718
sVneed help north america isc call center 713 3454727 europ
p32
F5.685308274954066
sVrevisedpref schedul match final individu interchang schedul unabl assign deal
p33
F5.3269106777038875
sVancillari schedul award varianc detect varianc detect load schedul log
p34
F5.702700017665935
sVcapacityrequest 25 serviceincr hourli tsclass firm tstype pointtopoint tsperiod offpeak
p35
F5.518917540232305
sVsellernam azp sellerphon 6022501128 sellerfax 6022501155 selleremail oasisadm apsccom customernam
p36
F5.4690851664844295
sVclose databas error dbcaps97data perform oper close databas error dbcaps97data
p37
F5.0590011125199705
sVpassword ehronlinesap personnel id password first time ipayit user train
p38
F5.69396633769718
sVschedul final schedul found prefer schedul detail transtyp final scid
p39
F5.202456503230481
sVdatabas error dbcaps97data perform oper close databas error dbcaps97data perform
p40
F5.0590011125199705
sVuser id password ehronlinesap personnel id password first time ipayit
p41
F5.69396633769718
sVdatabas unknown databas alia dbcaps97data unknown databas alia dbcaps97data error
p42
F5.02279806385601
sVcustomerfax 713 6468272 customeremail billrust enroncom reassignedref 0 reassignedcapac 0
p43
F5.455291844352094
sVpreconfirm ye ancsvclink na ancsvcreq na postingref 0 saleref requestref
p44
F5.476053835800523
sV713 8533801 customerfax 713 6468272 customeremail billrust enroncom reassignedref 0
p45
F5.455291844352094
sVpleas contact sender repli enron corp enronmessagingadministr enroncom delet copi
p46
F3.9979519254275098
sVdbcaps97data unknown databas alia dbcaps97data unknown databas alia dbcaps97data error
p47
F5.02279806385601
sVrecipi pleas contact sender repli enron corp enronmessagingadministr enroncom delet
p48
F3.9979519254275098
sVazp sellerphon 6022501128 sellerfax 6022501155 selleremail oasisadm apsccom customernam enron
p49
F5.4690851664844295
sVsender repli enron corp enronmessagingadministr enroncom delet copi messag email
p50
F3.9979519254275098
sVfix tssubclass wheel nerccurtailmentprior nerc prioriti 1 othercurtailmentprior default starttim
p51
F5.462164723639856
sV6022501128 sellerfax 6022501155 selleremail oasisadm apsccom customernam enron power market
p52
F5.4690851664844295
sVdatabas alia dbcaps97data unknown databas alia dbcaps97data error dbcaps97data perform
p53
F5.02279806385601
sVipayit user id password ehronlinesap personnel id password first time
p54
F5.69396633769718
sVdetect varianc detect load schedul log messag pars file portlandwestdeskcalifornia
p55
F5.720399594765336
sVid password ehronlinesap personnel id password first time ipayit user
p56
F5.69396633769718
sVreceiv ereport sign cb sportslinecom fantasi footbal custom reschedul turn
p57
F5.376303433033463
sVdatabas alia dbcaps97data error dbcaps97data perform oper close databas error
p58
F5.02279806385601
sVvisit websit view today s ga power price news click
p59
F5.320904653643676
sVunknown databas alia dbcaps97data error dbcaps97data perform oper close databas
p60
F5.02279806385601
sVnorth america isc call center 713 3454727 europ european account
p61
F5.685308274954066
sVenforc contract enron corp affili intend recipi parti may reli
p62
F3.9963582995922318
sVlocat prefer revisedpref schedul match final individu interchang schedul unabl
p63
F5.3269106777038875
sVsellerdun 958982563 customercod epmi customerdun 848921276 affiliateflag 0 pathnam wazpsazpsazpsfourcorne345
p64
F5.518917540232305
sVsole use intend recipi review use distribut disclosur other strictli
p65
F3.866615923366423
sVmessag email attach hereto intend offer accept creat evid bind
p66
F3.8596472540503295
sVschedul award varianc detect varianc detect load schedul log messag
p67
F5.702700017665935
sVcorp enronmessagingadministr enroncom delet copi messag email attach hereto intend
p68
F3.9979519254275098
sVemail attach hereto intend offer accept creat evid bind enforc
p69
F3.8596472540503295
sVid password first time ipayit user train materi click link
p70
F5.69396633769718
sVuse intend recipi review use distribut disclosur other strictli prohibit
p71
F3.8694170456461343
sVtstype pointtopoint tsperiod offpeak tswindow fix tssubclass wheel nerccurtailmentprior nerc
p72
F5.518917540232305
sVenron power market inc customerphon 713 8533801 customerfax 713 6468272
p73
F5.455291844352094
sVye ancsvclink na ancsvcreq na postingref 0 saleref requestref dealref
p74
F5.476053835800523
sVoffpeak tswindow fix tssubclass wheel nerccurtailmentprior nerc prioriti 1 othercurtailmentprior
p75
F5.518917540232305
sVaffili intend recipi parti may reli anyon basi contract estoppel
p76
F3.865218299099785
sVrelev affili may contain confidenti privileg materi sole use intend
p77
F3.8527268112057556
sVconfidenti intend sole use individu entiti address receiv email error
p78
F5.747550583831287
sVrepli enron corp enronmessagingadministr enroncom delet copi messag email attach
p79
F3.9979519254275098
sVpointtopoint tsperiod offpeak tswindow fix tssubclass wheel nerccurtailmentprior nerc prioriti
p80
F5.518917540232305
sV3454727 europ european account payabl 442077837520 asiapacif sydney account payabl
p81
F5.685308274954066
sVmw preconfirm ye ancsvclink na ancsvcreq na postingref 0 saleref
p82
F5.518917540232305
sVintend recipi parti may reli anyon basi contract estoppel otherwis
p83
F3.866615923366423
sVclose databas error dbcaps97data perform oper close databas unknown databas
p84
F5.02279806385601
sVaward varianc detect varianc detect load schedul log messag pars
p85
F5.702700017665935
sVselleremail oasisadm apsccom customernam enron power market inc customerphon 713
p86
F5.4690851664844295
sVepmi customerdun 848921276 affiliateflag 0 pathnam wazpsazpsazpsfourcorne345 pnpkaps230 pointofreceipt fourcorne345
p87
F5.571364015604848
sVsellercod azp sellerdun 958982563 customercod epmi customerdun 848921276 affiliateflag 0
p88
F5.462164723639856
sVdbcaps97data perform oper close databas error dbcaps97data perform oper close
p89
F5.000819157137235
sVhourahead schedul download fail manual intervent requir log messag pars
p90
F4.9499607399037435
sVancsvclink na ancsvcreq na postingref 0 saleref requestref dealref negotiatedpriceflag
p91
F5.476053835800523
sVenron corp enronmessagingadministr enroncom delet copi messag email attach hereto
p92
F3.9979519254275098
sVcustomercod epmi customerdun 848921276 affiliateflag 0 pathnam wazpsazpsazpsfourcorne345 pnpkaps230 pointofreceipt
p93
F5.571364015604848
sVpower market inc customerphon 713 8533801 customerfax 713 6468272 customeremail
p94
F5.428263171964175
sV8533801 customerfax 713 6468272 customeremail billrust enroncom reassignedref 0 reassignedcapac
p95
F5.455291844352094
sVcontain confidenti privileg materi sole use intend recipi review use
p96
F3.8596472540503295
sVazp sellerdun 958982563 customercod epmi customerdun 848921276 affiliateflag 0 pathnam
p97
F5.462164723639856
sVbind enforc contract enron corp affili intend recipi parti may
p98
F3.9963582995922318
sVenergi importexport schedul final schedul found prefer schedul detail transtyp
p99
F5.448465879281694
sVoper close databas error dbcaps97data perform oper close databas unknown
p100
F5.02279806385601
sVattach hereto intend offer accept creat evid bind enforc contract
p101
F3.8596472540503295
sVoper close databas unknown databas alia dbcaps97data unknown databas alia
p102
F5.02279806385601
sVemail properti enron corp andor relev affili may contain confidenti
p103
F3.9805601827156405
sVipayit click link http ipayitenroncom note ipayit user id password
p104
F5.69396633769718
sVerror retriev hourahead price data process continu energi importexport schedul
p105
F5.75676723893621
sVserviceincr hourli tsclass firm tstype pointtopoint tsperiod offpeak tswindow fix
p106
F5.518917540232305
sV848921276 affiliateflag 0 pathnam wazpsazpsazpsfourcorne345 pnpkaps230 pointofreceipt fourcorne345 pointofdeliveri pnpkaps230
p107
F5.571364015604848
sVdatabas alia dbcaps97data unknown databas alia dbcaps97data unknown databas alia
p108
F5.02279806385601
sVintend recipi review use distribut disclosur other strictli prohibit intend
p109
F3.8694170456461343
sVlink http ipayitenroncom note ipayit user id password ehronlinesap personnel
p110
F5.69396633769718
sVenron corp andor relev affili may contain confidenti privileg materi
p111
F3.9805601827156405
sVandor relev affili may contain confidenti privileg materi sole use
p112
F3.8527268112057556
sVprohibit intend recipi author receiv recipi pleas contact sender repli
p113
F3.9051096281270867
sVcontract enron corp affili intend recipi parti may reli anyon
p114
F3.9963582995922318
sVcall center 713 3454727 europ european account payabl 442077837520 asiapacif
p115
F5.685308274954066
sVtsperiod offpeak tswindow fix tssubclass wheel nerccurtailmentprior nerc prioriti 1
p116
F5.518917540232305
sVprefer revisedpref schedul match final individu interchang schedul unabl assign
p117
F5.3269106777038875
sVhttp ipayitenroncom note ipayit user id password ehronlinesap personnel id
p118
F5.69396633769718
sVrecipi parti may reli anyon basi contract estoppel otherwis thank
p119
F3.8694170456461343
sVsellerfax 6022501155 selleremail oasisadm apsccom customernam enron power market inc
p120
F5.4690851664844295
sV6022501155 selleremail oasisadm apsccom customernam enron power market inc customerphon
p121
F5.4690851664844295
sVdownload fail manual intervent requir log messag pars file portlandwestdeskcalifornia
p122
F4.929510129432454
sVunknown databas alia dbcaps97data unknown databas alia dbcaps97data unknown databas
p123
F5.02279806385601
sValia dbcaps97data unknown databas alia dbcaps97data unknown databas alia dbcaps97data
p124
F5.02279806385601
sVreview use distribut disclosur other strictli prohibit intend recipi author
p125
F3.8596472540503295
sVprivileg materi sole use intend recipi review use distribut disclosur
p126
F3.86382262546081
sVerror dbcaps97data perform oper close databas error dbcaps97data perform oper
p127
F5.000819157137235
sVevid bind enforc contract enron corp affili intend recipi parti
p128
F3.9963582995922318
sVschedul match final individu interchang schedul unabl assign deal number
p129
F5.3269106777038875
sVaffiliateflag 0 pathnam wazpsazpsazpsfourcorne345 pnpkaps230 pointofreceipt fourcorne345 pointofdeliveri pnpkaps230 sourc
p130
F5.571364015604848
sVrecipi author receiv recipi pleas contact sender repli enron corp
p131
F3.9868495116232046
sVenroncom delet copi messag email attach hereto intend offer accept
p132
F3.9868495116232046
sValia dbcaps97data error dbcaps97data perform oper close databas unknown databas
p133
F5.02279806385601
sVhourli tsclass firm tstype pointtopoint tsperiod offpeak tswindow fix tssubclass
p134
F5.518917540232305
sV713 3454727 europ european account payabl 442077837520 asiapacif sydney account
p135
F5.685308274954066
sVintend recipi author receiv recipi pleas contact sender repli enron
p136
F3.9868495116232046
sVna ancsvcreq na postingref 0 saleref requestref dealref negotiatedpriceflag statu
p137
F5.476053835800523
sVcustomernam enron power market inc customerphon 713 8533801 customerfax 713
p138
F5.455291844352094
sVdatabas unknown databas alia dbcaps97data unknown databas alia dbcaps97data unknown
p139
F5.02279806385601
sVdelet copi messag email attach hereto intend offer accept creat
p140
F3.8596472540503295
sVaward varianc detect log messag pars file portlandwestdeskcalifornia schedulingiso final
p141
F3.13035566852124
sVpleas visit websit view today s ga power price news
p142
F5.320904653643676
sVhelp north america isc call center 713 3454727 europ european
p143
F5.685308274954066
sV25 serviceincr hourli tsclass firm tstype pointtopoint tsperiod offpeak tswindow
p144
F5.518917540232305
sVproperti enron corp andor relev affili may contain confidenti privileg
p145
F3.9805601827156405
sVvarianc detect varianc detect load schedul log messag pars file
p146
F5.702700017665935
sVnote ipayit user id password ehronlinesap personnel id password first
p147
F5.69396633769718
sVrecipi review use distribut disclosur other strictli prohibit intend recipi
p148
F3.8694170456461343
sVoasisadm apsccom customernam enron power market inc customerphon 713 8533801
p149
F5.4690851664844295
sVcontact sender repli enron corp enronmessagingadministr enroncom delet copi messag
p150
F3.9979519254275098
sVperform oper close databas error dbcaps97data perform oper close databas
p151
F5.000819157137235
sVmarket inc customerphon 713 8533801 customerfax 713 6468272 customeremail billrust
p152
F5.428263171964175
sVcorp affili intend recipi parti may reli anyon basi contract
p153
F3.916805667890278
sVcb sportslinecom fantasi footbal custom reschedul turn report pleas click
p154
F5.376303433033463
sVpersonnel id password first time ipayit user train materi click
p155
F5.69396633769718
sVreceiv recipi pleas contact sender repli enron corp enronmessagingadministr enroncom
p156
F3.9947672093599897
sVehronlinesap personnel id password first time ipayit user train materi
p157
F5.69396633769718
sVdetect load schedul log messag pars file portlandwestdeskcalifornia schedulingiso final
p158
F5.6348774213271735
sVisc call center 713 3454727 europ european account payabl 442077837520
p159
F5.685308274954066
sVfail manual intervent requir log messag pars file portlandwestdeskcalifornia schedulingiso
p160
F4.929510129432454
sVdbcaps97data unknown databas alia dbcaps97data error dbcaps97data perform oper close
p161
F5.02279806385601
sVerror dbcaps97data perform oper close databas unknown databas alia dbcaps97data
p162
F5.02279806385601
sVmanual intervent requir log messag pars file portlandwestdeskcalifornia schedulingiso final
p163
F4.929510129432454
sVimportexport schedul final schedul found prefer schedul detail transtyp final
p164
F5.448465879281694
sValia dbcaps97data error dbcaps97data perform oper close databas error dbcaps97data
p165
F5.018363466788145
sVjone energi servic copyright c 2001 dow jone compani inc
p166
F5.668213841594766
sVintend offer accept creat evid bind enforc contract enron corp
p167
F3.9947672093599897
sVuse distribut disclosur other strictli prohibit intend recipi author receiv
p168
F3.8596472540503295
sVperform oper close databas unknown databas alia dbcaps97data unknown databas
p169
F5.02279806385601
sVdbcaps97data perform oper close databas unknown databas alia dbcaps97data unknown
p170
F5.02279806385601
sVoffer accept creat evid bind enforc contract enron corp affili
p171
F3.9931786466748522
sVaccept creat evid bind enforc contract enron corp affili intend
p172
F3.9963582995922318
sVcustomerdun 848921276 affiliateflag 0 pathnam wazpsazpsazpsfourcorne345 pnpkaps230 pointofreceipt fourcorne345 pointofdeliveri
p173
F5.571364015604848
sVpriceunit mw preconfirm ye ancsvclink na ancsvcreq na postingref 0
p174
F5.518917540232305
sVdbcaps97data error dbcaps97data perform oper close databas unknown databas alia
p175
F5.02279806385601
sVamerica isc call center 713 3454727 europ european account payabl
p176
F5.685308274954066
sVcreat evid bind enforc contract enron corp affili intend recipi
p177
F3.9963582995922318
sVdbcaps97data error dbcaps97data perform oper close databas error dbcaps97data perform
p178
F5.018363466788145
sVschedul download fail manual intervent requir log messag pars file
p179
F4.929510129432454
sVunknown databas alia dbcaps97data unknown databas alia dbcaps97data error dbcaps97data
p180
F5.02279806385601
sVstrictli prohibit intend recipi author receiv recipi pleas contact sender
p181
F3.8596472540503295
sVmateri sole use intend recipi review use distribut disclosur other
p182
F3.866615923366423
sVsellerphon 6022501128 sellerfax 6022501155 selleremail oasisadm apsccom customernam enron power
p183
F5.4690851664844295
sVdatabas error dbcaps97data perform oper close databas unknown databas alia
p184
F5.02279806385601
sVtsclass firm tstype pointtopoint tsperiod offpeak tswindow fix tssubclass wheel
p185
F5.518917540232305
sVlaunch ipayit click link http ipayitenroncom note ipayit user id
p186
F5.69396633769718
sV958982563 customercod epmi customerdun 848921276 affiliateflag 0 pathnam wazpsazpsazpsfourcorne345 pnpkaps230
p187
F5.571364015604848
sVclick link http ipayitenroncom note ipayit user id password ehronlinesap
p188
F5.69396633769718
sVmay contain confidenti privileg materi sole use intend recipi review
p189
F3.8596472540503295
sVsign cb sportslinecom fantasi footbal custom reschedul turn report pleas
p190
F5.376303433033463
s.