(dp0
Vmessag maggi mike
p1
F4.885938881138813
sVenron wholesal servic
p2
F4.82577035967236
sVschedul download fail
p3
F4.1308000245509
sVsent monday octob
p4
F3.971199739956077
sVattach pleas find
p5
F4.741804979555026
sVpleas notifi sender
p6
F4.901564199041894
sVcorp affili intend
p7
F3.916805667890278
sVrepli enron corp
p8
F3.9868495116232046
sVsent friday novemb
p9
F4.82577035967236
sVmessag pars file
p10
F2.8684552140030566
sVchief execut offic
p11
F4.909469378549007
sVenron corp affili
p12
F3.9852734671677386
sVerror retriev hourahead
p13
F4.712050718473233
sV2001 dow jone
p14
F4.818497600343281
sVlet know question
p15
F3.7744894457100227
sVdistribut disclosur other
p16
F3.8568733271676043
sVc 2001 dow
p17
F4.833096399764433
sVsent blackberri wireless
p18
F4.55836547965973
sVoffer accept creat
p19
F3.854107073674714
sVintend recipi author
p20
F3.836310573871094
sVmay reli anyon
p21
F3.8527268112057556
sVtranstyp final scid
p22
F4.8743780587377366
sVparti may reli
p23
F3.8610371083393837
sVmonday novemb 19
p24
F4.917437548198184
sVattach hereto intend
p25
F3.8568733271676043
sVcorp andor relev
p26
F3.8921130552999066
sVchief financi offic
p27
F4.885938881138813
sVcontain confidenti privileg
p28
F3.820159482543211
sVaffili may contain
p29
F3.8513484512356344
sVlet know thank
p30
F4.368160738057941
sVnew york time
p31
F4.921445569595723
sVaward varianc detect
p32
F3.002281200826204
sVkitchen louis sent
p33
F4.041968810844284
sVstrictli prohibit intend
p34
F3.8336005451122284
sVcopi messag email
p35
F3.847224734051772
sVmay contain confidenti
p36
F3.6924863374870562
sVdisclosur other strictli
p37
F3.8568733271676043
sVcopyright c 2001
p38
F4.633763497143942
sVmessag email attach
p39
F3.849971988526911
sVlet us know
p40
F4.354399052985259
sVestoppel otherwis thank
p41
F3.866615923366423
sVvarianc detect log
p42
F3.1270123019832656
sVenronmessagingadministr enroncom delet
p43
F3.991592603519217
sVlog messag pars
p44
F2.8684552140030566
sVwant make sure
p45
F4.98786001249473
sVcreat evid bind
p46
F3.8513484512356344
sVauthor receiv recipi
p47
F3.8554892439016655
sVmateri sole use
p48
F3.8444850063106517
sVproperti enron corp
p49
F3.9758690091397604
sVrecipi author receiv
p50
F3.854107073674714
sVsee attach file
p51
F3.7605563514060987
sVcontract estoppel otherwis
p52
F3.8624288970122063
sVhourahead schedul download
p53
F4.183148424307063
sVmanual intervent requir
p54
F4.1308000245509
sVanyon basi contract
p55
F3.8527268112057556
sVmessag kitchen louis
p56
F4.010793193375834
sVsent tuesday novemb
p57
F4.244493074955758
sVdow jone compani
p58
F4.664346920516022
sVenroncom delet copi
p59
F3.9868495116232046
sVrelev affili may
p60
F3.8527268112057556
sVsent monday novemb
p61
F4.196675200605265
sVdow jone newswir
p62
F4.9499607399037435
sVrecipi parti may
p63
F3.8610371083393837
sVenron corp andor
p64
F3.9758690091397604
sVlook forward hear
p65
F4.893721021580868
sVjone compani inc
p66
F4.673707363275586
sVpleas call question
p67
F4.5924596910027065
sVintend recipi parti
p68
F3.8513484512356344
sVbradford william s
p69
F4.741804979555026
sVenron north america
p70
F4.141789146126495
sVenron corp enronmessagingadministr
p71
F3.9947672093599897
sVnorth america corp
p72
F3.974310162370469
sVsole use intend
p73
F3.8148332382605368
sVinc right reserv
p74
F4.405812244261629
sVother strictli prohibit
p75
F3.8582593287754814
sVevid bind enforc
p76
F3.849971988526911
sVsent tuesday januari
p77
F4.941730240767228
sVsent wednesday novemb
p78
F4.658154950268101
sVfeel free contact
p79
F4.818497600343281
sVorigin messag maggi
p80
F4.885938881138813
sVlet know need
p81
F4.356679555683984
sVwireless handheld wwwblackberrynet
p82
F4.796991395122316
sVschedul award varianc
p83
F3.002281200826204
sVreli anyon basi
p84
F3.8527268112057556
sVancillari schedul award
p85
F3.002281200826204
sVretriev hourahead price
p86
F4.712050718473233
sVsent thursday januari
p87
F4.878216835044903
sV2000 dow jone
p88
F4.941730240767228
sVpower market inc
p89
F4.807686684239065
sVdaren j farmerhouect
p90
F4.728471448685561
sVprohibit intend recipi
p91
F3.80033067689391
sVpleas contact sender
p92
F3.722303692539452
sVsent wednesday octob
p93
F4.152900371551565
sVaccept creat evid
p94
F3.854107073674714
sVuse distribut disclosur
p95
F3.8513484512356344
sVcopyright 2000 dow
p96
F4.9541015325697755
sVsent thursday octob
p97
F4.352123739148124
sVprice data process
p98
F4.712050718473233
sVthank origin messag
p99
F4.210387462469248
sVcompani inc right
p100
F4.738454892669744
sVchief oper offic
p101
F4.90550897733291
sVandor relev affili
p102
F3.8444850063106517
sVkaminskihouect cc subject
p103
F4.833096399764433
sVpars file portlandwestdeskcalifornia
p104
F2.870519198223908
sVfyi origin messag
p105
F4.796991395122316
sVsent wednesday januari
p106
F4.689505480152177
sVmkttype 2 transdat
p107
F4.530815527891499
sV1400 smith street
p108
F4.145479187213949
sVj kaminskihouect cc
p109
F4.4856551317726465
sVrequir log messag
p110
F4.836779645180729
sVpleas feel free
p111
F4.010793193375834
sVrecipi pleas contact
p112
F3.7990226322338945
sVpleas give call
p113
F4.847911485549574
sVfile portlandwestdeskcalifornia schedulingiso
p114
F2.8700028026534343
sVreceiv recipi pleas
p115
F3.8527268112057556
sVdelet copi messag
p116
F3.841752764173779
sVoctob 22 2001
p117
F4.941730240767228
sVlook forward see
p118
F4.847911485549574
sVpleas see attach
p119
F4.277691144365354
sVorigin messag kitchen
p120
F4.0075673841269515
sVsteff jame d
p121
F4.621787306097226
sVportlandwestdeskcalifornia schedulingiso final
p122
F2.8700028026534343
sVdownload fail manual
p123
F4.1308000245509
sVforward vinc j
p124
F4.811277352369793
sVdetect log messag
p125
F3.1270123019832656
sVcontract enron corp
p126
F3.9836999027203084
sVintend recipi review
p127
F3.8554892439016655
sVblackberri wireless handheld
p128
F4.5752672904623335
sVnovemb 19 2001
p129
F4.8976349209020045
sVbasi contract estoppel
p130
F3.849971988526911
sVvinc j kaminski
p131
F4.470190906075064
sVhourahead price data
p132
F4.712050718473233
sVpresto kevin m
p133
F4.983577350702729
sVpm vinc j
p134
F4.917437548198184
sVprivileg materi sole
p135
F3.8444850063106517
sVquestion pleas call
p136
F4.62775747308373
sVsent wednesday septemb
p137
F4.96243491412892
sVbind enforc contract
p138
F3.847224734051772
sVmaggi mike sent
p139
F4.885938881138813
sVintend offer accept
p140
F3.8527268112057556
sVfail manual intervent
p141
F4.1308000245509
sVcorp 1400 smith
p142
F4.870553962299334
sVconfidenti privileg materi
p143
F3.843117952099119
sVcontact sender repli
p144
F3.843117952099119
sVuse intend recipi
p145
F3.821495488085953
sVknow question thank
p146
F4.847911485549574
sVvinc j kaminskihouect
p147
F3.7247279361509587
sVenforc contract enron
p148
F3.9836999027203084
sVsent friday octob
p149
F4.372790375956683
sVreview use distribut
p150
F3.849971988526911
sVpleas find attach
p151
F4.642840715295058
sVcorp enronmessagingadministr enroncom
p152
F3.991592603519217
sVsent tuesday octob
p153
F4.171697917519068
sVaffili intend recipi
p154
F3.854107073674714
sVemail properti enron
p155
F3.9758690091397604
sVintervent requir log
p156
F4.836779645180729
sVemail attach hereto
p157
F3.8513484512356344
sVpleas let know
p158
F2.50725444460612
sVhouston texa 77002
p159
F4.664346920516022
sVdata process continu
p160
F4.712050718473233
sVhouston tx 77002
p161
F4.728471448685561
sVcc vinc j
p162
F4.7621446637921485
sVhereto intend offer
p163
F3.8568733271676043
sVrecipi review use
p164
F3.8554892439016655
sVsender repli enron
p165
F3.9868495116232046
s.