(dp0
Vsole use intend recipi review use distribut
p1
F3.8624288970122063
sVazp sellerphon 6022501128 sellerfax 6022501155 selleremail oasisadm
p2
F5.462164723639856
sVsellercod azp sellerdun 958982563 customercod epmi customerdun
p3
F5.462164723639856
sVcorp andor relev affili may contain confidenti
p4
F3.897868466870527
sVdbcaps97data perform oper close databas error dbcaps97data
p5
F5.000819157137235
sVrepli enron corp enronmessagingadministr enroncom delet copi
p6
F3.9979519254275098
sVunknown databas alia dbcaps97data unknown databas alia
p7
F5.02279806385601
sV2000 dow jone compani inc right reserv
p8
F4.945837022719882
sVserviceincr hourli tsclass firm tstype pointtopoint tsperiod
p9
F5.518917540232305
sVget free download msn explor http explorermsncomintlasp
p10
F5.303100029010169
sVproperti enron corp andor relev affili may
p11
F3.9805601827156405
sVpathnam wazpsazpsazpsfourcorne345 pnpkaps230 pointofreceipt fourcorne345 pointofdeliveri pnpkaps230
p12
F5.571364015604848
sVtranstyp final scid ectrt mkttype 2 transdat
p13
F5.610584728758129
sVepmi customerdun 848921276 affiliateflag 0 pathnam wazpsazpsazpsfourcorne345
p14
F5.518917540232305
sVtime ipayit user train materi click link
p15
F5.541058666109519
sVlocat prefer revisedpref schedul match final individu
p16
F5.3269106777038875
sVenforc contract enron corp affili intend recipi
p17
F3.9963582995922318
sVna postingref 0 saleref requestref dealref negotiatedpriceflag
p18
F5.476053835800523
sVpreconfirm ye ancsvclink na ancsvcreq na postingref
p19
F5.476053835800523
sVdistribut disclosur other strictli prohibit intend recipi
p20
F3.8596472540503295
sVother strictli prohibit intend recipi author receiv
p21
F3.8596472540503295
sVdisclosur other strictli prohibit intend recipi author
p22
F3.8596472540503295
sVintend recipi author receiv recipi pleas contact
p23
F3.8568733271676043
sV713 6468272 customeremail billrust enroncom reassignedref 0
p24
F5.455291844352094
sVintervent requir log messag pars file portlandwestdeskcalifornia
p25
F4.929510129432454
sVtssubclass wheel nerccurtailmentprior nerc prioriti 1 othercurtailmentprior
p26
F5.462164723639856
sVfantasi footbal custom reschedul turn report pleas
p27
F5.363724650826604
sVcapacityrequest 25 serviceincr hourli tsclass firm tstype
p28
F5.518917540232305
sVhourli tsclass firm tstype pointtopoint tsperiod offpeak
p29
F5.518917540232305
sVcorp enronmessagingadministr enroncom delet copi messag email
p30
F3.9979519254275098
sVenron corp enronmessagingadministr enroncom delet copi messag
p31
F3.9979519254275098
sVuse intend recipi review use distribut disclosur
p32
F3.86382262546081
sVschedul match final individu interchang schedul unabl
p33
F5.3269106777038875
sVemail properti enron corp andor relev affili
p34
F3.9758690091397604
sVattach hereto intend offer accept creat evid
p35
F3.8596472540503295
sVsender repli enron corp enronmessagingadministr enroncom delet
p36
F3.9979519254275098
sVvarianc detect log messag pars file portlandwestdeskcalifornia
p37
F3.13035566852124
sVmay reli anyon basi contract estoppel otherwis
p38
F3.866615923366423
sVpriceunit mw preconfirm ye ancsvclink na ancsvcreq
p39
F5.518917540232305
sV958982563 customercod epmi customerdun 848921276 affiliateflag 0
p40
F5.462164723639856
sVlog messag pars file portlandwestdeskcalifornia schedulingiso final
p41
F2.8720699868520994
sVprefer revisedpref schedul match final individu interchang
p42
F5.3269106777038875
sVtsclass firm tstype pointtopoint tsperiod offpeak tswindow
p43
F5.518917540232305
sVazp sellerdun 958982563 customercod epmi customerdun 848921276
p44
F5.462164723639856
sV25 serviceincr hourli tsclass firm tstype pointtopoint
p45
F5.518917540232305
sVancsvclink na ancsvcreq na postingref 0 saleref
p46
F5.476053835800523
sVcontain confidenti privileg materi sole use intend
p47
F3.847224734051772
sVsellerfax 6022501155 selleremail oasisadm apsccom customernam enron
p48
F5.4690851664844295
sVservic copyright c 2001 dow jone compani
p49
F5.389042458810893
sVereport sign cb sportslinecom fantasi footbal custom
p50
F5.376303433033463
sVid password ehronlinesap personnel id password first
p51
F5.643107920463689
sVreuter english news servic c reuter limit
p52
F5.251512660219675
sVerror dbcaps97data perform oper close databas unknown
p53
F5.02279806385601
sV6468272 customeremail billrust enroncom reassignedref 0 reassignedcapac
p54
F5.455291844352094
sVaccept creat evid bind enforc contract enron
p55
F3.9852734671677386
sVcontact sender repli enron corp enronmessagingadministr enroncom
p56
F3.9947672093599897
sVcb sportslinecom fantasi footbal custom reschedul turn
p57
F5.376303433033463
sVauthor receiv recipi pleas contact sender repli
p58
F3.902206868469125
sVdatabas alia dbcaps97data unknown databas alia dbcaps97data
p59
F5.02279806385601
sVegroupscom use yahoo group subject http docsyahoocominfoterms
p60
F5.382652660712123
sVancillari schedul award varianc detect log messag
p61
F3.1270123019832656
sVmarket inc customerphon 713 8533801 customerfax 713
p62
F5.428263171964175
sV848921276 affiliateflag 0 pathnam wazpsazpsazpsfourcorne345 pnpkaps230 pointofreceipt
p63
F5.571364015604848
sVstrictli prohibit intend recipi author receiv recipi
p64
F3.8596472540503295
sVwebsit view today s ga power price
p65
F5.320904653643676
sVipayit user train materi click link http
p66
F5.541058666109519
sVfootbal custom reschedul turn report pleas click
p67
F5.363724650826604
sVdownload fail manual intervent requir log messag
p68
F4.836779645180729
sVprivileg materi sole use intend recipi review
p69
F3.8568733271676043
sVmanual intervent requir log messag pars file
p70
F4.929510129432454
sVerror retriev hourahead price data process continu
p71
F4.712050718473233
sVcustomerdun 848921276 affiliateflag 0 pathnam wazpsazpsazpsfourcorne345 pnpkaps230
p72
F5.571364015604848
sVcopi messag email attach hereto intend offer
p73
F3.8568733271676043
sVsportslinecom fantasi footbal custom reschedul turn report
p74
F5.376303433033463
sVwheel nerccurtailmentprior nerc prioriti 1 othercurtailmentprior default
p75
F5.462164723639856
sVcopyright c 2001 dow jone compani inc
p76
F4.833096399764433
sVrecipi parti may reli anyon basi contract
p77
F3.86382262546081
sVvisit websit view today s ga power
p78
F5.320904653643676
sVunknown databas alia dbcaps97data error dbcaps97data perform
p79
F5.02279806385601
sVenron power market inc customerphon 713 8533801
p80
F5.455291844352094
sVandor relev affili may contain confidenti privileg
p81
F3.8527268112057556
sVoffer accept creat evid bind enforc contract
p82
F3.854107073674714
sVsellerdun 958982563 customercod epmi customerdun 848921276 affiliateflag
p83
F5.462164723639856
sVenronmessagingadministr enroncom delet copi messag email attach
p84
F3.9947672093599897
sV713 8533801 customerfax 713 6468272 customeremail billrust
p85
F5.428263171964175
sV6022501128 sellerfax 6022501155 selleremail oasisadm apsccom customernam
p86
F5.4690851664844295
sVfinal individu interchang schedul unabl assign deal
p87
F5.3269106777038875
sVreceiv recipi pleas contact sender repli enron
p88
F3.9868495116232046
sVdatabas unknown databas alia dbcaps97data unknown databas
p89
F5.02279806385601
sVpower market inc customerphon 713 8533801 customerfax
p90
F5.428263171964175
sVuse distribut disclosur other strictli prohibit intend
p91
F3.8596472540503295
sVreli anyon basi contract estoppel otherwis thank
p92
F3.8694170456461343
sVhourahead schedul download fail manual intervent requir
p93
F4.183148424307063
sVprohibit intend recipi author receiv recipi pleas
p94
F3.8596472540503295
sVperform oper close databas unknown databas alia
p95
F5.02279806385601
sVaffili may contain confidenti privileg materi sole
p96
F3.8527268112057556
sVenergi importexport schedul final schedul found prefer
p97
F5.448465879281694
sVperform oper close databas error dbcaps97data perform
p98
F5.000819157137235
sVsellerphon 6022501128 sellerfax 6022501155 selleremail oasisadm apsccom
p99
F5.4690851664844295
sVcustomerfax 713 6468272 customeremail billrust enroncom reassignedref
p100
F5.455291844352094
sVschedul award varianc detect log messag pars
p101
F3.129016980235644
sVdbcaps97data perform oper close databas unknown databas
p102
F5.02279806385601
sValia dbcaps97data error dbcaps97data perform oper close
p103
F5.018363466788145
sVaffiliateflag 0 pathnam wazpsazpsazpsfourcorne345 pnpkaps230 pointofreceipt fourcorne345
p104
F5.571364015604848
sVpointtopoint tsperiod offpeak tswindow fix tssubclass wheel
p105
F5.518917540232305
sVtswindow fix tssubclass wheel nerccurtailmentprior nerc prioriti
p106
F5.462164723639856
sVfirm tstype pointtopoint tsperiod offpeak tswindow fix
p107
F5.518917540232305
sVye ancsvclink na ancsvcreq na postingref 0
p108
F5.476053835800523
sVoper close databas error dbcaps97data perform oper
p109
F5.000819157137235
sVlaunch ipayit click link http ipayitenroncom note
p110
F5.541058666109519
sVmw preconfirm ye ancsvclink na ancsvcreq na
p111
F5.518917540232305
sValia dbcaps97data unknown databas alia dbcaps97data error
p112
F5.02279806385601
sVconfidenti privileg materi sole use intend recipi
p113
F3.854107073674714
sVfail manual intervent requir log messag pars
p114
F4.929510129432454
sVrevisedpref schedul match final individu interchang schedul
p115
F5.3269106777038875
sVsellernam azp sellerphon 6022501128 sellerfax 6022501155 selleremail
p116
F5.462164723639856
sVfound prefer schedul detail transtyp final scid
p117
F5.171040306997102
sVreview use distribut disclosur other strictli prohibit
p118
F3.8596472540503295
sVindividu interchang schedul unabl assign deal number
p119
F5.3269106777038875
sVoasisadm apsccom customernam enron power market inc
p120
F5.4690851664844295
sVcustomeremail billrust enroncom reassignedref 0 reassignedcapac 0
p121
F5.455291844352094
sVmay contain confidenti privileg materi sole use
p122
F3.847224734051772
sVparti may reli anyon basi contract estoppel
p123
F3.86382262546081
sVcopyright 2000 dow jone compani inc right
p124
F4.9541015325697755
sValia dbcaps97data unknown databas alia dbcaps97data unknown
p125
F5.02279806385601
sVrecipi review use distribut disclosur other strictli
p126
F3.866615923366423
sVpleas visit websit view today s ga
p127
F5.320904653643676
sVintend recipi parti may reli anyon basi
p128
F3.86382262546081
sVview today s ga power price news
p129
F5.320904653643676
sVevid bind enforc contract enron corp affili
p130
F3.9931786466748522
sVdatabas alia dbcaps97data error dbcaps97data perform oper
p131
F5.02279806385601
sVintend recipi review use distribut disclosur other
p132
F3.866615923366423
sVfix tssubclass wheel nerccurtailmentprior nerc prioriti 1
p133
F5.462164723639856
sVschedul download fail manual intervent requir log
p134
F4.836779645180729
sVrequir log messag pars file portlandwestdeskcalifornia schedulingiso
p135
F4.929510129432454
sVtoday s ga power price news click
p136
F5.320904653643676
sVclose databas unknown databas alia dbcaps97data unknown
p137
F5.02279806385601
sVselleremail oasisadm apsccom customernam enron power market
p138
F5.4690851664844295
sVcontract enron corp affili intend recipi parti
p139
F3.9963582995922318
sVdbcaps97data unknown databas alia dbcaps97data error dbcaps97data
p140
F5.02279806385601
sVrecipi author receiv recipi pleas contact sender
p141
F3.8568733271676043
sVconfidenti intend sole use individu entiti address
p142
F5.618616900455393
sVancsvcreq na postingref 0 saleref requestref dealref
p143
F5.476053835800523
sVmessag email attach hereto intend offer accept
p144
F3.8568733271676043
sVinc customerphon 713 8533801 customerfax 713 6468272
p145
F5.428263171964175
sVvarianc detect load schedul log messag pars
p146
F5.610584728758129
sVdbcaps97data unknown databas alia dbcaps97data unknown databas
p147
F5.02279806385601
sVuser id password ehronlinesap personnel id password
p148
F5.643107920463689
sVfirst time ipayit user train materi click
p149
F5.541058666109519
sVaward varianc detect log messag pars file
p150
F3.129016980235644
sVerror dbcaps97data perform oper close databas error
p151
F5.000819157137235
sVpassword ehronlinesap personnel id password first time
p152
F5.643107920463689
sVdatabas error dbcaps97data perform oper close databas
p153
F5.000819157137235
sVna ancsvcreq na postingref 0 saleref requestref
p154
F5.476053835800523
sVwazpsazpsazpsfourcorne345 pnpkaps230 pointofreceipt fourcorne345 pointofdeliveri pnpkaps230 sourc
p155
F5.571364015604848
sVancillari schedul award varianc detect varianc detect
p156
F5.140581099512394
sVc 2001 dow jone compani inc new
p157
F5.541058666109519
sVclose databas error dbcaps97data perform oper close
p158
F5.000819157137235
sVfinal schedul found prefer schedul detail transtyp
p159
F5.171040306997102
sVrecipi pleas contact sender repli enron corp
p160
F3.9868495116232046
sVmateri sole use intend recipi review use
p161
F3.8568733271676043
sVenglish news servic c reuter limit 2001
p162
F5.268414471022279
sVdetect log messag pars file portlandwestdeskcalifornia schedulingiso
p163
F3.13035566852124
sVschedul log messag pars file portlandwestdeskcalifornia schedulingiso
p164
F5.1658989074966835
sVimportexport schedul final schedul found prefer schedul
p165
F5.448465879281694
sVschedul final schedul found prefer schedul detail
p166
F5.202456503230481
sVcorp affili intend recipi parti may reli
p167
F3.916805667890278
sVpostingref 0 saleref requestref dealref negotiatedpriceflag statu
p168
F5.428263171964175
sVreceiv ereport sign cb sportslinecom fantasi footbal
p169
F5.376303433033463
sVcustomernam enron power market inc customerphon 713
p170
F5.455291844352094
sVenron corp andor relev affili may contain
p171
F3.9805601827156405
sV6022501155 selleremail oasisadm apsccom customernam enron power
p172
F5.4690851664844295
sVcustomercod epmi customerdun 848921276 affiliateflag 0 pathnam
p173
F5.428263171964175
sVintend offer accept creat evid bind enforc
p174
F3.8568733271676043
sVoper close databas unknown databas alia dbcaps97data
p175
F5.02279806385601
sVaffili intend recipi parti may reli anyon
p176
F3.865218299099785
sVhereto intend offer accept creat evid bind
p177
F3.8596472540503295
sVdetect load schedul log messag pars file
p178
F5.610584728758129
sVcustomerphon 713 8533801 customerfax 713 6468272 customeremail
p179
F5.428263171964175
sVbind enforc contract enron corp affili intend
p180
F3.9963582995922318
sVsign cb sportslinecom fantasi footbal custom reschedul
p181
F5.376303433033463
sVtsperiod offpeak tswindow fix tssubclass wheel nerccurtailmentprior
p182
F5.518917540232305
sV0 pathnam wazpsazpsazpsfourcorne345 pnpkaps230 pointofreceipt fourcorne345 pointofdeliveri
p183
F5.571364015604848
sVenron corp affili intend recipi parti may
p184
F3.9963582995922318
sVapsccom customernam enron power market inc customerphon
p185
F5.4690851664844295
sVschedul found prefer schedul detail transtyp final
p186
F5.171040306997102
sVrelev affili may contain confidenti privileg materi
p187
F3.8527268112057556
sVdbcaps97data error dbcaps97data perform oper close databas
p188
F5.018363466788145
sVload schedul log messag pars file portlandwestdeskcalifornia
p189
F5.6348774213271735
sVmatch final individu interchang schedul unabl assign
p190
F5.3269106777038875
sVemail attach hereto intend offer accept creat
p191
F3.8596472540503295
sVdelet copi messag email attach hereto intend
p192
F3.8568733271676043
sVpleas contact sender repli enron corp enronmessagingadministr
p193
F3.9947672093599897
sVoffpeak tswindow fix tssubclass wheel nerccurtailmentprior nerc
p194
F5.518917540232305
sVnerccurtailmentprior nerc prioriti 1 othercurtailmentprior default starttim
p195
F5.428263171964175
sVenroncom delet copi messag email attach hereto
p196
F3.9868495116232046
sVtstype pointtopoint tsperiod offpeak tswindow fix tssubclass
p197
F5.518917540232305
sV8533801 customerfax 713 6468272 customeremail billrust enroncom
p198
F5.455291844352094
sVcreat evid bind enforc contract enron corp
p199
F3.991592603519217
s.