(dp0
Vparse file
p1
F2.9207198480964656
sVsend monday
p2
F2.8457654007252056
sVparty may
p3
F3.8604797145114675
sVnatural gas
p4
F3.2707892634298896
sVrecipient please
p5
F3.7879749869129764
sVrecipient authorize
p6
F3.889932981424963
sVcontain confidential
p7
F3.670055627897374
sVnorth america
p8
F3.1259829741328264
sVenforceable contract
p9
F3.8981185660114024
sVdelete copy
p10
F3.8357227497861914
sVconfidential privilege
p11
F3.8578446668734623
sVfeel free
p12
F3.7388927240120973
sVmake sure
p13
F3.5260827545524327
sVfile portlandwestdeskcalifornia
p14
F2.9222674367468433
sVmay contain
p15
F3.609751796511304
sVvariance detect
p16
F3.0545458349196126
sVkitchen louise
p17
F3.7146561077816562
sVsend email
p18
F3.8040544922873245
sVemail attachment
p19
F3.810308421363624
sVsend tuesday
p20
F2.9079155758504776
sVmessage email
p21
F3.873760122179362
sVrisk management
p22
F3.7135165065187223
sVnew york
p23
F3.3373292985749963
sVplease see
p24
F3.7953641830953475
sVmessage parse
p25
F2.9207198480964656
sVcreate evidence
p26
F3.90223662262032
sVstart date
p27
F2.726018197217708
sVaward variance
p28
F3.0545458349196126
sVattachment hereto
p29
F3.899489368145181
sVauthorize receive
p30
F3.9008620519571533
sVemail address
p31
F3.6689657095333486
sVtoday s
p32
F3.775779713819158
sVlog message
p33
F2.90639002254164
sVwo nt
p34
F3.889932981424963
sVhourahead hour
p35
F2.796315027769229
sVintend offer
p36
F3.889932981424963
sVquestion please
p37
F3.431545471862456
sVoriginal message
p38
F1.4157264906424578
sVcontract estoppel
p39
F3.90223662262032
sVattach file
p40
F3.643157825577476
sVenron corp
p41
F3.2759231214237414
sVsee attach
p42
F3.708971044147048
sVsubject fw
p43
F2.8495986588928672
sVsend friday
p44
F3.2569859204039906
sVdetect log
p45
F3.179276936076674
sVrecipient party
p46
F3.903613085329043
sVnext week
p47
F3.2334554229937966
sVrelevant affiliate
p48
F3.8967496404040607
sVenron s
p49
F3.815339878518991
sVcontact sender
p50
F3.772149945768579
sVknow question
p51
F3.761339029664364
sVreview use
p52
F3.8617998467163903
sVplease contact
p53
F2.737110461118082
sVvice president
p54
F3.8512872663273034
sVprohibit intend
p55
F3.881813856986459
sVcopy message
p56
F3.7916627599921613
sVweb site
p57
F3.8981185660114024
sVj kaminskihouect
p58
F3.7769925702443676
sVlast year
p59
F3.812820985499507
sVmay rely
p60
F3.8981185660114024
sVsend wednesday
p61
F2.875372028118006
sVstrictly prohibit
p62
F3.6263153221829785
sVca nt
p63
F3.4890071457502176
sVandor relevant
p64
F3.8967496404040607
sVplease call
p65
F3.0610489615920384
sVplease let
p66
F2.4315707712662946
sVmaterial sole
p67
F3.8967496404040607
sVnt know
p68
F3.8831624748577522
sVevidence bind
p69
F3.90223662262032
sVintend recipient
p70
F3.545149109054612
sVbind enforceable
p71
F3.9008620519571533
sVancillary schedule
p72
F3.0545458349196126
sVlook forward
p73
F3.357867145257771
sVaffiliate may
p74
F3.8912926009410027
sVwould like
p75
F2.373254157770685
sVsender reply
p76
F3.8447725853061097
sVplease find
p77
F3.774568326632861
sVmonday october
p78
F3.8040544922873245
sVlast week
p79
F3.2885019036306016
sVbasis contract
p80
F3.88046705543608
sVdistribution disclosure
p81
F3.90223662262032
sVuse intend
p82
F3.8644453509048144
sVportlandwestdeskcalifornia schedulingiso
p83
F2.9222674367468433
sVsole use
p84
F3.8644453509048144
sVlet know
p85
F1.8848607336658258
sVschedule award
p86
F3.0545458349196126
sVcc subject
p87
F2.674746116462038
sVsend thursday
p88
F3.035864614470549
sVprivilege material
p89
F3.8357227497861914
sVschedulingiso final
p90
F2.9222674367468433
sVoffer acceptance
p91
F3.9008620519571533
sVuse distribution
p92
F3.8858651792056373
sVvince j
p93
F3.6231886911835467
sVemail property
p94
F3.8981185660114024
s.