(dp0
Vconsider
p1
F3.88924772382662
sVdollar
p2
F3.797716296319839
sVmonth
p3
F2.404267433137324
sVfour
p4
F3.469107796158841
sVabil
p5
F3.748056188641867
sVfollow
p6
F1.728443777811904
sVsettlement
p7
F3.643192690886916
sVtx
p8
F3.527151165808756
sVtw
p9
F3.8082150804180586
sVsorri
p10
F3.4986759969407917
sVthursday
p11
F2.219033724147779
sVprogram
p12
F3.0524276172305362
sVworth
p13
F3.948174931557923
sVsound
p14
F3.903657195046772
sVfax
p15
F2.2408092171043137
sVeveri
p16
F3.1961005432666747
sVrisk
p17
F2.60490212435097
sVfar
p18
F3.321692962896086
sVutil
p19
F3.073718340039418
sVgovern
p20
F3.4486419655665497
sVaffect
p21
F3.7031184518181037
sVschool
p22
F3.782171941882039
sVharri
p23
F3.624355568800472
sVlouis
p24
F2.8581987138358675
sVlist
p25
F2.1135924363078487
sVwednesday
p26
F2.178922806292154
sVadjust
p27
F3.9301293290887487
sVsmall
p28
F3.6420747477855753
sVlisa
p29
F3.5493071577059645
sVenjoy
p30
F3.792507951212701
sVproperti
p31
F3.3784221000606296
sVtel
p32
F3.893548805726011
sVandor
p33
F3.0711898936860593
sVmiller
p34
F3.8792832285671883
sVpaso
p35
F3.875042939528303
sVdirect
p36
F2.8531096443283963
sVpast
p37
F2.890869496125416
sVllc
p38
F3.8596472540503295
sVrate
p39
F2.723328931540222
sVstreet
p40
F3.1250116344269685
sVdesign
p41
F3.4653554465402903
sVpass
p42
F3.20905968790918
sVeven
p43
F2.726901959012761
sVrichard
p44
F3.160959893114769
sVsection
p45
F3.657840840124251
sVabl
p46
F2.6544252303239615
sVnear
p47
F3.8108570898808973
sVdelet
p48
F3.160959893114769
sVversion
p49
F3.307199955593519
sVnew
p50
F1.7016063535162085
sVnet
p51
F3.2992381300955107
sVever
p52
F3.780887420189682
sVpublic
p53
F3.0630163178454177
sVtold
p54
F3.2011202741369873
sVfull
p55
F3.18260122636975
sVnever
p56
F3.6123532425038367
sVprivat
p57
F3.8161621421105907
sVmet
p58
F3.7668655205993633
sV100
p59
F3.169978337866709
sVstrong
p60
F3.7235150797257495
sVvalu
p61
F2.8389965068519314
sVenron
p62
F1.807841018495146
sVsender
p63
F3.2280800125882103
sVahead
p64
F3.7580437872702155
sVschedulingiso
p65
F2.8700028026534343
sVk
p66
F3.6681090421514506
sVjame
p67
F3.0487170378340007
sVamount
p68
F3.0680382995237143
sVpick
p69
F3.7344841110963234
sVaction
p70
F3.129686100367668
sVvia
p71
F3.2369821485288033
sVdepart
p72
F3.215602786498116
sVdeclin
p73
F3.936108420144807
sVput
p74
F2.6882837332900213
sVfamili
p75
F3.868015503720846
sVtotal
p76
F2.7509012996674143
sVestablish
p77
F3.7406304119450176
sVselect
p78
F3.478550736959123
sVspoke
p79
F3.8241728658566694
sVwould
p80
F1.3464411347409644
sVregist
p81
F3.837668347331554
sVtwo
p82
F2.2763822159202522
sVcall
p83
F1.5299334936680309
sVasset
p84
F3.2626439340432865
sV6
p85
F2.8638267665528696
sVtaken
p86
F3.7031184518181037
sVtype
p87
F3.1623420633417205
sVtell
p88
F3.3184540936679423
sVrelat
p89
F2.744505663431009
sVaward
p90
F2.803111604664846
sVphone
p91
F2.483824192797734
sVeffect
p92
F2.731835810689957
sVcompani
p93
F2.1243111747408547
sVhold
p94
F3.1438420495978003
sVmust
p95
F2.9251892182207255
sVderiv
p96
F3.8308978407643437
sVkaminski
p97
F3.480450072762775
sVjoin
p98
F3.129686100367668
sVroom
p99
F3.302415257470183
sVhour
p100
F2.1961421203459532
sVhous
p101
F3.599422027831588
sVwork
p102
F1.652136257619339
sVmw
p103
F3.8708205546484544
sVmr
p104
F3.670405254411801
sVdec
p105
F3.8792832285671883
sVgive
p106
F2.3109034102884856
sVchalleng
p107
F3.945144626208744
sVshare
p108
F3.1091487770189183
sVindic
p109
F3.0382778886892954
sVwant
p110
F1.874630867258264
sVdrive
p111
F3.693662116576068
sVdavid
p112
F2.63179517593445
sVena
p113
F3.3290190029881592
sVcours
p114
F3.4294895333517936
sVend
p115
F2.4358697996756984
sVgoal
p116
F3.906564173838081
sVsecur
p117
F3.02553113036519
sVrather
p118
F3.6342839459978067
sVanoth
p119
F2.7211022550468487
sVspreadsheet
p120
F3.841752764173779
sVinterview
p121
F3.5719651815985483
sVnegoti
p122
F3.5493071577059645
sVupdat
p123
F2.3608305842449924
sVplant
p124
F3.300031466114907
sVresourc
p125
F2.9367119794575056
sVfw
p126
F2.7868277199439486
sVearlier
p127
F3.390512057338548
sVreflect
p128
F3.5462568248883413
sVlay
p129
F3.91094054843788
sVvarianc
p130
F2.9350577193614793
sVassoci
p131
F2.8684552140030566
sVaverag
p132
F3.663532375124039
sVa
p133
F3.233263289650066
sVshort
p134
F3.2889816299283217
sVattempt
p135
F3.7186783109251356
sVthird
p136
F3.508403700108804
sVsusan
p137
F3.53014368674521
sVcaus
p138
F3.5834896674505026
sVperform
p139
F3.0213180636458863
sVmaintain
p140
F3.782171941882039
sVenter
p141
F3.1727696865039796
sVfirst
p142
F2.253826988528148
sVorder
p143
F2.5997668177860973
sVorigin
p144
F1.2578839234660764
sVhelp
p145
F2.0436469454494355
sVoffici
p146
F3.5930185907963805
sVfall
p147
F3.669256489207928
sVsoon
p148
F2.810867339130095
sVtrade
p149
F2.178664174453133
sVheld
p150
F3.3208822615950973
sVpaper
p151
F3.632069105668254
sVlondon
p152
F3.389643624804594
sVcopyright
p153
F3.5202032470399587
sV24
p154
F3.160959893114769
sV25
p155
F2.9646936595643054
sV26
p156
F3.154077553491827
sV27
p157
F3.400114924671889
sV20
p158
F2.5569609767883605
sV21
p159
F3.268778922610802
sV22
p160
F3.274178087288573
sV23
p161
F3.334754373072903
sVfix
p162
F3.7247279361509587
sV28
p163
F3.525161115400746
sV29
p164
F3.4394759985524694
sVlate
p165
F3.2626439340432865
sVoffic
p166
F2.115290023716858
sVstephen
p167
F3.8736334960250693
sVmight
p168
F2.811841049041497
sVgood
p169
F2.2738192072553627
sVreturn
p170
F2.908955095458842
sVye
p171
F3.538167802015258
sVbank
p172
F3.3887759457913713
sVcell
p173
F3.3192628280427945
sVl
p174
F3.0813422651500773
sVfound
p175
F3.1868445142076163
sVwent
p176
F3.730814382207361
sVcomplet
p177
F2.4771796500790657
sVoblig
p178
F3.8582593287754814
sVside
p179
F3.4672298613346406
sVmean
p180
F3.169281716452261
sVprohibit
p181
F3.189683408946041
sVresum
p182
F3.825514247680871
sVhard
p183
F3.478550736959123
sVidea
p184
F3.3784221000606296
sVprocedur
p185
F3.8485974178637443
sVrealli
p186
F3.105875451673949
sVexpect
p187
F2.6527620282773583
sVenergi
p188
F2.103946834637977
sVcommiss
p189
F3.414249435606794
sVsaturday
p190
F3.6521815154553496
sVnetwork
p191
F3.554411814017648
sVp
p192
F3.055530319068047
sVopen
p193
F2.770337358044533
sVrobert
p194
F2.886661178499629
sVmonitor
p195
F3.7031184518181037
sVpublish
p196
F3.456035714591488
sVresearch
p197
F2.991147186012523
sVcontent
p198
F3.6738594892798884
sVre
p199
F3.0775230370830817
sV7
p200
F3.0542880828834558
sVprint
p201
F3.7744894457100227
sVgot
p202
F3.1769713733576794
sVconfidenti
p203
F2.8720699868520994
sVadvanc
p204
F3.6521815154553496
sVfriday
p205
F2.064652283964126
sVsituat
p206
F3.585599372874352
sVfree
p207
F2.533825616561765
sVstandard
p208
F3.454182145942165
sVreason
p209
F3.0249281758699857
sVbase
p210
F2.626115647482849
sVbeliev
p211
F2.7277972142202724
sVask
p212
F2.4003864450836163
sVbasi
p213
F2.765675344938722
sVlaunch
p214
F3.9301293290887487
sVsuccess
p215
F3.2399672253722565
sVamerican
p216
F3.3931218891809185
sVunabl
p217
F3.656706410053639
sVw
p218
F3.0718214061794185
sVassign
p219
F3.669256489207928
sVmajor
p220
F3.268778922610802
sVnotifi
p221
F3.3879090189923855
sVfeel
p222
F2.851587960037815
sVexchang
p223
F3.478550736959123
sVindepend
p224
F3.728375356608002
sVnumber
p225
F2.046588456790883
sVcapac
p226
F3.092888256147138
sValreadi
p227
F2.7863527733665094
sVdone
p228
F2.870519198223908
sVagre
p229
F2.8369965061852644
sVmiss
p230
F3.408925554354044
sVdiffer
p231
F2.925734920826355
sVnomin
p232
F3.9406163165839967
sVciti
p233
F3.4757084801901925
sVtop
p234
F3.270318568796395
sVleast
p235
F3.3208822615950973
sVstori
p236
F3.875042939528303
sVmaster
p237
F3.8241728658566694
sVstatement
p238
F3.623258475986099
sVtom
p239
F3.35887196613784
sVjohn
p240
F2.3159337508263698
sVoption
p241
F2.7601094678612768
sVrelationship
p242
F3.9212271931481553
sVpark
p243
F3.884965062034619
sVtook
p244
F3.7668655205993633
sVpart
p245
F2.742231384533969
sVpars
p246
F2.863313814502638
sVconsult
p247
F3.778323316220744
sVtechnic
p248
F3.9391114254045765
sVkind
p249
F3.643192690886916
sVb
p250
F3.298445422959272
sVtarget
p251
F3.7886194174730083
sVprovid
p252
F2.0400384616060574
sVremov
p253
F3.5698840153947238
sVsecond
p254
F3.1616507394289464
sVproject
p255
F2.666145749591689
sVmatter
p256
F3.3835856227206786
sVgreg
p257
F3.410697034002426
sVarrang
p258
F3.461617124429683
sVminut
p259
F3.624355568800472
sVtoward
p260
F3.8792832285671883
sVcomput
p261
F3.7555375202941557
sVmind
p262
F3.834954641459958
sVseen
p263
F3.802951910373784
sVseem
p264
F3.2340059558557575
sVseek
p265
F3.884965062034619
sVsell
p266
F3.0518082304036733
sVancillari
p267
F2.9472529924552977
sValso
p268
F1.7083696643210688
sVclient
p269
F3.797716296319839
sVbuild
p270
F3.1996834922806245
sVthoma
p271
F3.890679363298058
sVpipelin
p272
F3.1130909634646575
sVdistribut
p273
F2.6977993760250647
sVthough
p274
F3.5605719977691055
sVpreviou
p275
F3.7505437521136686
sVreach
p276
F3.186136048007243
sVplan
p277
F2.1637768358439216
sVletter
p278
F3.1769713733576794
sVenroncom
p279
F2.520997879732514
sVcharg
p280
F3.1216860577005914
sVhourahead
p281
F2.7295901326745615
sVclear
p282
F3.3405228274696435
sVcover
p283
F3.1623420633417205
sVleft
p284
F3.220721627657023
sVcame
p285
F3.8241728658566694
sVsession
p286
F3.868015503720846
sVfine
p287
F3.8792832285671883
sVfind
p288
F2.374261990286208
sVimpact
p289
F3.4625503956126815
sVcurrent
p290
F2.088941194020107
sVpretti
p291
F3.91094054843788
sVequiti
p292
F3.825514247680871
sVexplain
p293
F3.8807006632481618
sVsolut
p294
F3.630963522360504
sVbusi
p295
F2.0913080590303728
sVrick
p296
F3.5493071577059645
sV8
p297
F3.1561372864548374
sVoct
p298
F3.5866558970085523
sV11
p299
F2.9450245792768714
sVhit
p300
F3.832248279862215
sVfinanc
p301
F3.255786764317149
sVwatch
p302
F3.890679363298058
sVreport
p303
F2.086579917834427
sVearn
p304
F3.753037518992071
sVprobabl
p305
F3.014733185018402
sVseptemb
p306
F2.8638267665528696
sVcommod
p307
F3.6646745797028157
sVrespond
p308
F3.3064009144003865
sVset
p309
F2.517000055036634
sVvinc
p310
F2.761498035545623
sVsee
p311
F1.709663116401157
sVresult
p312
F2.848046342371849
sVrespons
p313
F2.5217264772146546
sVfail
p314
F3.339696722507338
sVclose
p315
F2.618860476601677
sVskill
p316
F3.882120109902388
sVbest
p317
F2.4922809028159576
sVsubject
p318
F0.9528220926508673
sVawar
p319
F3.754286738392503
sVsaid
p320
F2.6913016273675447
sVdatabas
p321
F3.8807006632481618
sVaway
p322
F3.5877135385666876
sVparticip
p323
F2.8845636423346828
sVfigur
p324
F3.8921130552999066
sVexperi
p325
F3.5192146162130196
sVapproach
p326
F3.6080242314142508
sValtern
p327
F3.7198853116751707
sVaccord
p328
F3.326571021349519
sVappreci
p329
F3.1533919175376446
sVextend
p330
F3.7138648238935876
sVweb
p331
F2.963559229493694
sVwo
p332
F3.749299196881464
sVsold
p333
F3.8835415742497656
sVsole
p334
F3.2772764631212428
sVnews
p335
F2.9186639095858027
sVkitchen
p336
F3.3331123365791586
sVprotect
p337
F3.797716296319839
sVlast
p338
F2.085165823797229
sVhowev
p339
F2.5231852666783143
sVannual
p340
F3.8161621421105907
sVcountri
p341
F3.8527268112057556
sVwhole
p342
F3.8554892439016655
sVload
p343
F3.5503260064950672
sVsimpli
p344
F3.849971988526911
sVpoint
p345
F2.4775282643409193
sVschedul
p346
F1.736886837651651
sVkaren
p347
F3.728375356608002
sVsuppli
p348
F3.245964244844631
sVassum
p349
F3.3200722169983528
sVspeak
p350
F3.585599372874352
sVthree
p351
F2.9579063031909056
sVrevenu
p352
F3.8722260362571896
sVmuch
p353
F2.5144642811728697
sVunsubscrib
p354
F3.5940829868521678
sVpg
p355
F3.8403894374459147
sVinterest
p356
F2.34513070812935
sVsubscrib
p357
F3.802951910373784
sVstrategi
p358
F3.5845439638054084
sVfirm
p359
F2.9579063031909056
sVregul
p360
F3.828202421342671
sVfund
p361
F3.492884474961203
sVdave
p362
F3.375850302672258
sVunderstand
p363
F2.8824704966201775
sVdemand
p364
F3.4303932839781504
sVdavi
p365
F3.6199744007849093
sVplay
p366
F3.345493840191664
sVeast
p367
F3.5371612594038564
sVlook
p368
F1.913142043983705
sVservic
p369
F1.988272518916306
sVbill
p370
F2.63791639480269
sVcommerci
p371
F3.3504896873850356
sVemploy
p372
F3.9406163165839967
sVcalcul
p373
F3.7618150048132946
sVerror
p374
F2.951724771846691
sVeveryon
p375
F3.1575128024901478
sVreal
p376
F3.316838584431288
sVreadi
p377
F3.518226961811747
sVdeliv
p378
F3.3741394382686285
sVtherefor
p379
F3.499644520018922
sVplayer
p380
F3.9227053900174664
sVie
p381
F3.8736334960250693
sVid
p382
F3.3405228274696435
sVsever
p383
F2.761498035545623
sVgrant
p384
F3.942123475874568
sVreceiv
p385
F1.7447313241768336
sVsuggest
p386
F2.9251892182207255
sVmake
p387
F1.8406784360018196
sV9
p388
F3.267241643291916
sVhigher
p389
F3.7899139160356543
sVevid
p390
F3.4766550017942235
sVyesterday
p391
F3.174168288130563
sVhand
p392
F3.5919553264750506
sVrais
p393
F3.6521815154553496
sVcounterparti
p394
F3.3016200288000443
sVuser
p395
F3.2634087524362085
sVkim
p396
F3.6924863374870562
sVbob
p397
F3.1472422568859697
sVrecent
p398
F2.829531928106219
sVlower
p399
F3.6409580530855
sVdaren
p400
F3.7757657700696274
sVthu
p401
F3.8095352126229813
sVwithout
p402
F3.00878432749863
sVperson
p403
F2.6033192193904653
sVcontact
p404
F1.8817156264280346
sVexpens
p405
F3.5605719977691055
sVeveryth
p406
F3.777043725515119
sV800
p407
F3.8835415742497656
sVspend
p408
F3.8610371083393837
sVpropos
p409
F2.881947894047531
sVidentifi
p410
F3.501584384836749
sVyet
p411
F3.0315807555910133
sVprevious
p412
F3.9301293290887487
sVcut
p413
F3.6069449004945753
sVboard
p414
F3.4240841147848857
sVels
p415
F3.288197008467904
sVsave
p416
F3.43220323922339
sVchairman
p417
F3.6476770033342447
sVapplic
p418
F3.083257363086177
sVmarch
p419
F3.1377506602043983
sVmayb
p420
F3.9007586422927605
sVbig
p421
F3.3128111927613055
sVbid
p422
F3.7271580710042502
sVcredit
p423
F2.7863527733665094
sVgame
p424
F3.7007459714644733
sVmeasur
p425
F3.8108570898808973
sVd
p426
F2.7399622662469825
sVspecif
p427
F3.095472236913063
sVmanual
p428
F3.7990226322338945
sVresolv
p429
F3.722303692539452
sVkaminskihouect
p430
F3.7235150797257495
sVnight
p431
F3.349655311032916
sVright
p432
F2.4581906451907614
sVold
p433
F3.6866280899186883
sVdeal
p434
F2.086579917834427
sVback
p435
F2.156162585858676
sV50
p436
F3.464419555035385
sVintern
p437
F2.850574788725208
sVdear
p438
F3.288197008467904
sVtransmiss
p439
F3.453256648421222
sVaffili
p440
F3.315225680855823
sVshall
p441
F3.7031184518181037
sVper
p442
F2.6857041961760895
sVlarg
p443
F3.406274205032424
sVunit
p444
F2.8320139348408007
sVcondit
p445
F3.5866558970085523
sVrun
p446
F2.856159977146019
sV300
p447
F3.8778678001638576
sVconfer
p448
F2.902534527655919
sVstep
p449
F3.3818614843625388
sVcorp
p450
F2.3463532021691313
sVpost
p451
F2.9522851529204757
sVproceed
p452
F3.5877135385666876
sVmateri
p453
F2.951724771846691
sVmanag
p454
F1.9848580896494616
sVdisclosur
p455
F3.261116049865233
sVafternoon
p456
F3.334754373072903
sVcommit
p457
F3.60586673327423
sVproduc
p458
F3.3784221000606296
sVferc
p459
F3.5930185907963805
sVtelephon
p460
F3.9256683551481233
sVwithin
p461
F2.8913967832454635
sVbankruptci
p462
F3.942123475874568
sVsteven
p463
F3.6080242314142508
sVensur
p464
F3.266473888935585
sVopportun
p465
F2.844014078843911
sVannounc
p466
F3.1452007454589928
sVstorag
p467
F3.836310573871094
sVsupport
p468
F2.569496753483341
sVquestion
p469
F1.6357747352312184
sVlong
p470
F2.91379771993463
sVcustom
p471
F2.576786254397682
sVavail
p472
F2.1985133505440952
sVreli
p473
F3.5142860700118703
sVinclud
p474
F2.0155764902542637
sVway
p475
F2.5141025521039952
sVsuit
p476
F3.5311431870782934
sVforward
p477
F1.7455694769373244
sVmorn
p478
F2.677579285112443
sVanalysi
p479
F3.4823530229088613
sVhead
p480
F3.2047212863105816
sVform
p481
F2.835998003855675
sVoffer
p482
F2.365495497074025
sVforc
p483
F3.6866280899186883
sVrecommend
p484
F3.398362075844475
sVhear
p485
F3.094179411910758
sVline
p486
F2.7504431095104867
sVanalyst
p487
F3.509381695296781
sVinfo
p488
F3.3957385500720902
sVconsist
p489
F3.6924863374870562
sVus
p490
F1.7360559277575636
sVsimilar
p491
F3.769400376202551
sVfeatur
p492
F3.890679363298058
sVm
p493
F2.37112227028154
sVrepres
p494
F3.1337102506673933
sVexist
p495
F3.307199955593519
sVhome
p496
F3.0099712712581583
sVcheck
p497
F2.7944577045038645
sVfloor
p498
F3.559542661599991
sVexcel
p499
F3.9256683551481233
sVtim
p500
F3.6134384298051234
sVrole
p501
F3.42049666699123
sVjone
p502
F3.4151395113219873
sVtest
p503
F3.5006139820434705
sVnt
p504
F1.7800321163280473
sVintend
p505
F2.815256519548859
sVwilliam
p506
F2.949486382551711
sVnotic
p507
F3.1330384333764214
sVconsid
p508
F3.037056887316601
sVweekend
p509
F3.447721578939221
sVbillion
p510
F3.6047897272465916
sVe
p511
F2.6391451477731827
sVlonger
p512
F3.5133032689499624
sVvice
p513
F3.701931508058575
sV2002
p514
F2.209120715978543
sV2000
p515
F2.696930566239745
sV2001
p516
F1.2206891357055525
sVtime
p517
F1.438662031890654
sVinc
p518
F2.6657247855778947
sVdaili
p519
F2.922465163144798
sVcode
p520
F3.61670107543994
sVglobal
p521
F2.962426084896525
sVsteve
p522
F2.8128157079880496
sVsignific
p523
F3.5761405530090293
sVga
p524
F1.9289313197359326
sVhereto
p525
F3.8148332382605368
sVgo
p526
F1.7831614651961338
sVdecid
p527
F3.41781450177129
sVdepend
p528
F3.8485974178637443
sVapril
p529
F3.315225680855823
sVsend
p530
F2.1208881885135593
sV0
p531
F3.7567898686106216
sVdecis
p532
F3.2163324472382597
sVpay
p533
F2.9999268736645686
sVsent
p534
F1.1788160021894336
sVbrown
p535
F3.705496574223071
sVsourc
p536
F3.302415257470183
sV713
p537
F2.721547193875101
sVelectron
p538
F3.7066877595932244
sVvolum
p539
F2.920291249245178
sVoctob
p540
F2.1830700387786006
sVword
p541
F3.507426660460977
sVrelev
p542
F3.41781450177129
sVtri
p543
F2.5520654671053733
sVadministr
p544
F3.248222431728223
sVlevel
p545
F3.1216860577005914
sVmichael
p546
F2.873623184161499
sVitem
p547
F3.35887196613784
sVteam
p548
F2.4855801194999994
sVguy
p549
F3.233263289650066
sVpleas
p550
F0.7844493623838789
sVnatur
p551
F2.950045510326971
sVsign
p552
F2.835998003855675
sVquickli
p553
F3.8068966886648004
sVcost
p554
F2.7386032626403134
sVdownload
p555
F3.461617124429683
sVclick
p556
F2.6313884238442378
sVindex
p557
F3.8764543723667106
sVappear
p558
F3.2061653298828157
sVcompar
p559
F3.909479627798205
sVrepli
p560
F2.9295632000438383
sVfeedback
p561
F3.854107073674714
sVremain
p562
F2.9100292094181794
sVaccess
p563
F2.7435953310968637
sV1400
p564
F3.8068966886648004
sVinvolv
p565
F3.2399672253722565
sVlee
p566
F3.9391114254045765
sVgener
p567
F2.4101173035732835
sVlearn
p568
F3.675013557497995
sVagreement
p569
F2.5430900889772476
sVlet
p570
F1.5538728080095836
sVaddress
p571
F2.4452784712326863
sValong
p572
F3.3438340887732996
sVbecom
p573
F3.222188979350973
sVsinc
p574
F2.6009495500351467
sVwait
p575
F3.5391753587755574
sVgreat
p576
F2.8435111872064582
sVconvers
p577
F3.715066025239222
sVinvit
p578
F3.6601135683752535
sV31
p579
F3.4276844787100633
sV30
p580
F2.8809035075296245
sVtechnolog
p581
F3.3948655687857454
sVearli
p582
F3.125678078970129
sVopinion
p583
F3.9271531364157024
sVchang
p584
F1.8776883892274185
sVchanc
p585
F3.508403700108804
sVemploye
p586
F2.7577994645240715
sVlove
p587
F3.8174928142962954
sVappli
p588
F3.559542661599991
sVapproxim
p589
F3.7643370742460047
sVprefer
p590
F3.1616507394289464
sVmarket
p591
F1.9378346565740765
sVwholesal
p592
F3.4514082190594397
sVuse
p593
F1.6928182487029175
sVfee
p594
F3.8188252595300742
sVcommun
p595
F2.7300388650132557
sVunivers
p596
F3.630963522360504
sVvisit
p597
F2.946138165138051
sVnext
p598
F2.129713938374133
sVwebsit
p599
F3.223658487330333
sVlive
p600
F3.663532375124039
sVtoday
p601
F2.017555600301027
sVcapit
p602
F3.3656287486007197
sVpeopl
p603
F2.6033192193904653
sVtrain
p604
F3.7393981258987523
sVaccept
p605
F2.902534527655919
sVactual
p606
F3.1527067513580485
sVeffort
p607
F3.0285513682394063
sVbehalf
p608
F3.875042939528303
sVaccount
p609
F2.618860476601677
sVf
p610
F3.630963522360504
sVprepar
p611
F3.083896544955174
sVportlandwestdeskcalifornia
p612
F2.869486673609719
sVfocu
p613
F3.6601135683752535
sVmeet
p614
F1.8577919489005401
sVpurpos
p615
F3.4222887821662114
sVcontrol
p616
F3.0800675677180767
sVclaim
p617
F3.8135060980524744
sVexplor
p618
F3.7643370742460047
sVprocess
p619
F2.3602102368305578
sVtax
p620
F3.7406304119450176
sVhigh
p621
F2.8592196429699746
sVheard
p622
F3.653310821052501
sVcritic
p623
F3.5133032689499624
sVonlin
p624
F2.993480909358743
sVagenc
p625
F3.916805667890278
sVoccur
p626
F3.7393981258987523
sVsix
p627
F3.9376087955200414
sVgeorg
p628
F3.665818090404895
sVwrite
p629
F3.507426660460977
sVbrian
p630
F3.545242111457795
sVsunday
p631
F3.5291451844156203
sVanyon
p632
F2.9306596913817673
sVinstead
p633
F3.8736334960250693
sVchri
p634
F2.9952347829448396
sVstock
p635
F3.501584384836749
sVproduct
p636
F2.449338016726565
sVexpress
p637
F3.60586673327423
sVattend
p638
F3.1216860577005914
sVmay
p639
F1.6279914299606932
sVstop
p640
F3.6738594892798884
sVspot
p641
F3.949693534735113
sVattent
p642
F3.698379106454207
sVdate
p643
F1.6679937217635654
sVcourt
p644
F3.9512144475758197
sVdata
p645
F2.7122448012127878
sVphysic
p646
F3.557487162417895
sValloc
p647
F3.8792832285671883
sVpractic
p648
F3.554411814017648
sVliquid
p649
F3.782171941882039
sVbind
p650
F3.6995618387032567
sVst
p651
F3.7455747977904816
sVissu
p652
F2.0849303357471594
sVinform
p653
F1.632025199529739
sVchief
p654
F3.5803334312690653
sVcombin
p655
F3.80033067689391
sVallow
p656
F2.8929803148511075
sVmichel
p657
F3.4027499723098944
sVhouston
p658
F2.220920262909698
sVmove
p659
F2.612455330604417
sVapprov
p660
F2.6695198565464464
sVmeter
p661
F3.8527268112057556
sVstill
p662
F2.3491092902711115
sVentiti
p663
F3.3818614843625388
sVdelay
p664
F3.7418642183939457
sVgroup
p665
F1.9910553527789863
sVthank
p666
F1.0117545985162366
sValway
p667
F3.554411814017648
sVpolici
p668
F3.406274205032424
sVll
p669
F2.567968869305288
sVjim
p670
F3.2112359673317754
sVmail
p671
F3.14248519728651
sVholiday
p672
F3.906564173838081
sVhandl
p673
F3.599422027831588
sVfinanci
p674
F2.689576001400075
sVdan
p675
F3.722303692539452
sViniti
p676
F3.1932433984658948
sVnation
p677
F3.486169821435562
sVanswer
p678
F3.300031466114907
sVhalf
p679
F3.896426505553626
sVnov
p680
F3.7138648238935876
sVinvestor
p681
F3.8708205546484544
sVdiscuss
p682
F2.030181750980277
sVterm
p683
F2.6556744497243936
sVname
p684
F2.298582925900445
sVanyth
p685
F2.994065192168237
sVdrop
p686
F3.6420747477855753
sVsepar
p687
F3.690138918568751
sVfebruari
p688
F3.0456353712965925
sVjanuari
p689
F2.5997668177860973
sVquarter
p690
F3.6889672722718605
sVel
p691
F3.777043725515119
sVee
p692
F3.9256683551481233
sVreplac
p693
F3.6353932084520926
sVindividu
p694
F3.008191383514462
sVcontinu
p695
F2.3651838249505737
sVeb
p696
F3.866615923366423
sVyear
p697
F2.128237560153206
sVet
p698
F3.585599372874352
sVhappen
p699
F3.4098109019107685
sVspecial
p700
F3.3597140714507625
sVcanada
p701
F3.6287560159452936
sVprofit
p702
F3.8268574312273387
sVinternet
p703
F3.488083697617846
sVcorrect
p704
F3.3844488079274897
sVregulatori
p705
F3.64992672306826
sVfrank
p706
F3.6188821013863004
sVmillion
p707
F3.2054430474389917
sVcalifornia
p708
F3.0505706064833236
sVyork
p709
F3.270318568796395
sVreleas
p710
F3.3040076144945463
sVcare
p711
F3.50352802004532
sVcould
p712
F2.016895461647942
sVkeep
p713
F2.6712111888735226
sVthing
p714
F2.8236001262346155
sVenforc
p715
F3.590893191484067
sVplace
p716
F2.615252535225478
sVoutsid
p717
F3.5006139820434705
sVpresid
p718
F3.095472236913063
sVsummari
p719
F3.364781649863068
sVthink
p720
F2.1622493406385703
sVsouth
p721
F3.7605563514060987
sV1000
p722
F3.7605563514060987
sVoper
p723
F2.3633158293887107
sVdirectli
p724
F3.3597140714507625
sVcarri
p725
F3.769400376202551
sVone
p726
F1.7594163716004745
sVsubmit
p727
F3.4606847234297318
sVhappi
p728
F3.4588225254986673
sVfacil
p729
F3.4700480877184825
sVtomorrow
p730
F2.9192060619438913
sVgiven
p731
F2.942801120884474
sVlaw
p732
F3.5877135385666876
sVsheet
p733
F3.6808039616326997
sVsystem
p734
F2.2566187268014124
sVmessag
p735
F0.9769437107943436
sVattach
p736
F1.5417631237671143
sV2
p737
F1.9185103837476738
sVdraft
p738
F3.1547636598652256
sVtermin
p739
F3.50352802004532
sVwhite
p740
F3.8308978407643437
sVfinal
p741
F2.072063156232755
sVfriend
p742
F3.697197771408376
sVseason
p743
F3.623258475986099
sVjuli
p744
F2.851587960037815
sVcopi
p745
F2.2971262614039807
sVshirley
p746
F3.909479627798205
sVserv
p747
F3.507426660460977
sV10
p748
F2.4806712737381185
sV13
p749
F3.2112359673317754
sV12
p750
F2.803111604664846
sV15
p751
F2.7509012996674143
sV14
p752
F3.1968161068034684
sV17
p753
F3.1216860577005914
sV16
p754
F3.1283483075260077
sV19
p755
F3.0813422651500773
sV18
p756
F3.2004016251660654
sVstructur
p757
F3.3479886439804467
sVr
p758
F3.290552722160363
sVbalanc
p759
F3.5719651815985483
sVlight
p760
F3.7744894457100227
sVposit
p761
F2.5195422753998136
sVfunction
p762
F3.683129544076175
sVsan
p763
F3.4349243293377505
sVsay
p764
F2.726454631785441
sVtabl
p765
F3.68779699712367
sVneed
p766
F1.4082830250309364
sV1
p767
F1.891952316494845
sVturn
p768
F3.3363991102857815
sVkevin
p769
F3.008191383514462
sVengin
p770
F3.8188252595300742
sVnote
p771
F2.316824090698213
sVtake
p772
F1.9744733401828487
sVadvis
p773
F3.206888134395672
sVwonder
p774
F3.902206868469125
sVnoth
p775
F3.8513484512356344
sV200
p776
F3.7406304119450176
sVbegin
p777
F2.8998714102364356
sVsure
p778
F2.538632429292729
sVunless
p779
F3.6738594892798884
sVnormal
p780
F3.919751178120035
sVtrack
p781
F3.6101863944187462
sVprice
p782
F2.076722996910802
sVsalli
p783
F3.632069105668254
sVpaid
p784
F3.6254538665495346
sV01
p785
F3.696017830268527
sVamerica
p786
F2.6440753138810416
sVpayment
p787
F3.3128111927613055
sVlater
p788
F3.0542880828834558
sVrequest
p789
F2.2225401336742743
sVsale
p790
F2.793500766631797
sVface
p791
F3.632069105668254
sVtalk
p792
F2.5090520363179265
sVdetermin
p793
F3.1982487718049644
sVlink
p794
F2.974961861591505
sVsenior
p795
F3.4294895333517936
sVsometh
p796
F3.1975321827381125
sVfact
p797
F3.436742511656809
sVrecipi
p798
F3.3128111927613055
sVshow
p799
F2.86433998185795
sVbring
p800
F3.15957963064581
sVtexa
p801
F2.930111295426154
sVstaff
p802
F3.3421770875656702
sVlocat
p803
F2.886661178499629
sVtransact
p804
F2.7545743983792756
sVactiv
p805
F2.8226149044800457
sV3
p806
F2.262225694111975
sVjan
p807
F3.6134384298051234
sVfuel
p808
F3.7455747977904816
sVlocal
p809
F3.8527268112057556
sVhope
p810
F2.469540724044084
sVcontribut
p811
F3.8582593287754814
sVvariou
p812
F3.661251872425314
sVget
p813
F1.5417631237671143
sVprogress
p814
F3.832248279862215
sVincreas
p815
F3.048099944324754
sVrequir
p816
F2.225245763030432
sVorgan
p817
F3.3521605315498535
sVh
p818
F3.779604546376793
sVemail
p819
F1.479586848887993
sVintegr
p820
F3.8792832285671883
sVcontain
p821
F2.7277972142202724
sVprivileg
p822
F3.3032111190322864
sVview
p823
F2.737246103418205
sVreserv
p824
F2.9020013364942603
sVconcern
p825
F2.8196650498336244
sVstatu
p826
F3.0105652718696243
sVdetect
p827
F2.9367119794575056
sVreview
p828
F2.028400013315156
sVstate
p829
F2.62895137958364
sVimport
p830
F2.6784314368470095
sVacross
p831
F3.782171941882039
sVken
p832
F3.6866280899186883
sVaugust
p833
F3.046866898545839
sVprior
p834
F3.1343825196002753
sVflow
p835
F3.2603529822967308
sVjr
p836
F3.7886194174730083
sVjob
p837
F3.2170626407719816
sVentir
p838
F3.7630752444255826
sVjoe
p839
F3.2772764631212428
sVkey
p840
F3.292126286607793
sVcome
p841
F2.362072434761622
sVaddit
p842
F2.2290459847591584
sVregion
p843
F3.4662922147586768
sVcontract
p844
F2.179699103394149
sVetc
p845
F3.2369821485288033
sVs
p846
F1.0017412974037418
sVcommitte
p847
F3.542204134437718
sVmani
p848
F2.6878533480886286
sVcomment
p849
F2.5997668177860973
sVamong
p850
F3.7618150048132946
sVco
p851
F3.510360647895765
sVcc
p852
F1.5069501196289359
sVtuesday
p853
F2.1890619806347282
sVperiod
p854
F3.154077553491827
sVcancel
p855
F3.792507951212701
sVrespect
p856
F3.3931218891809185
sVmailto
p857
F2.6602683187346208
sVbetter
p858
F3.0207176433336422
sVcreat
p859
F2.6244988322559437
sVcoupl
p860
F3.4662922147586768
sVwest
p861
F3.108493254216028
sVmari
p862
F3.1330384333764214
sVmark
p863
F2.373004919096157
sVelectr
p864
F3.1196960072925815
sVimmedi
p865
F2.9350577193614793
sV500
p866
F3.62106789460628
sVmike
p867
F2.6784314368470095
sVc
p868
F2.7854035563991775
sVtogeth
p869
F3.1196960072925815
sVpresent
p870
F2.800700221774651
sVcase
p871
F2.9062748472716424
sVmain
p872
F3.8016404347759734
sVcash
p873
F3.1762698650861894
sVtrader
p874
F3.305602511164362
sVpurchas
p875
F2.925734920826355
sVve
p876
F2.941691242857113
sVsite
p877
F2.9306596913817673
sVpartner
p878
F3.7630752444255826
sVrevis
p879
F3.1568248079669656
sVdevelop
p880
F2.5603642699200684
sVwelcom
p881
F3.8121807168114055
sVauthor
p882
F2.9646936595643054
sVparti
p883
F2.7463288179925245
sVeconom
p884
F3.633175912643445
sVmember
p885
F2.9807123087199434
sVdocument
p886
F2.8541253884482316
sVdifficult
p887
F3.8624288970122063
sVweek
p888
F1.8738679452300329
sVcompetit
p889
F3.849971988526911
sVjeffrey
p890
F3.7007459714644733
sVoil
p891
F3.6365037027361193
sVhttp
p892
F1.8821000200518334
sVassist
p893
F2.8133033939279763
sVupon
p894
F3.3741394382686285
sVsomeon
p895
F3.233263289650066
sVdirector
p896
F2.944468251028865
sVimprov
p897
F3.6145247960173443
sVappropri
p898
F3.4098109019107685
sVcenter
p899
F2.9761093086479824
sVmention
p900
F3.4196018123453857
sVwell
p901
F2.185670820478658
sVthought
p902
F2.863313814502638
sVexampl
p903
F3.730814382207361
sVmodel
p904
F3.38272318196002
sVlatest
p905
F3.3273863495642737
sVsummer
p906
F3.9138688082169684
sVexecut
p907
F2.737698285202984
sVless
p908
F3.3290190029881592
sVmoney
p909
F3.442216977883892
sVobtain
p910
F3.8174928142962954
sVrest
p911
F3.6623914736882472
sVweekli
p912
F3.8241728658566694
sVpaul
p913
F3.244461614960096
sVkimberli
p914
F3.91094054843788
sVeurop
p915
F3.5951485170542057
sVjeff
p916
F2.826561628892685
sVsmith
p917
F2.9328562875423083
sVexcept
p918
F3.630963522360504
sVlittl
p919
F3.169978337866709
sVday
p920
F1.8445590654675392
sVwall
p921
F3.906564173838081
sVadd
p922
F3.2384735731154732
sVother
p923
F3.00346044624588
sV4
p924
F2.51808878677183
sVca
p925
F2.9646936595643054
sVami
p926
F3.91094054843788
sVaround
p927
F3.0016920991891376
sVread
p928
F3.255786764317149
sVfyi
p929
F3.0573965715537232
sVfive
p930
F3.753037518992071
sVknow
p931
F1.3273844483911426
sVdesk
p932
F3.0667804377226435
sVpress
p933
F3.710269852975729
sVworld
p934
F3.237727582778752
sVpassword
p935
F3.7964116646931743
sVloss
p936
F3.624355568800472
sVlike
p937
F1.6440735380459135
sVlost
p938
F3.847224734051772
sVcorpor
p939
F2.969814581139196
sVbenefit
p940
F3.41336015142191
sVnecessari
p941
F3.447721578939221
sVeither
p942
F2.9251892182207255
sVmartin
p943
F3.8807006632481618
sVpage
p944
F3.1678899277794383
sVgrowth
p945
F3.9227053900174664
sVguarante
p946
F3.854107073674714
sVtransport
p947
F3.3306543263288897
sVfeder
p948
F3.6601135683752535
sVlead
p949
F3.2550277509979777
sVconfirm
p950
F2.7126858155529012
sVdefinit
p951
F3.8241728658566694
sVlegal
p952
F2.8450206214553124
sVestim
p953
F3.396612294120687
sVleav
p954
F3.195385491394949
sVrefer
p955
F3.344663620135675
sVpower
p956
F2.095820594891048
sValthough
p957
F3.4196018123453857
sVok
p958
F3.488083697617846
sVscott
p959
F3.3032111190322864
sVstand
p960
F3.915336159910918
sVact
p961
F3.5919553264750506
sVindustri
p962
F2.9681046918653684
sVgari
p963
F3.663532375124039
sVwashington
p964
F3.676168959128551
sVdue
p965
F2.5345636239753353
sVweather
p966
F3.896426505553626
sVcentral
p967
F3.643192690886916
sVlog
p968
F2.584129282561298
sVarea
p969
F2.9641262836625604
sVtransfer
p970
F3.7964116646931743
sVstart
p971
F1.9207057743111096
sVlow
p972
F3.7332593712004276
sVlot
p973
F3.3079996357640837
sVstrictli
p974
F3.5006139820434705
sVdeliveri
p975
F3.189683408946041
sVago
p976
F3.548289345913264
sVbuy
p977
F2.9567795425083148
sVnorth
p978
F2.675452077333068
sVenough
p979
F3.5771871255797
sVregard
p980
F1.8882704985579557
sVhi
p981
F3.106529260131368
sVestoppel
p982
F3.847224734051772
sVgain
p983
F3.8624288970122063
sVpull
p984
F3.8708205546484544
sVmade
p985
F2.57717138823645
sVpossibl
p986
F2.4094656254791875
sVwhether
p987
F3.1243456337363504
sVwish
p988
F3.3835856227206786
sVj
p989
F2.547567708398542
sVrecord
p990
F3.408925554354044
sVlimit
p991
F2.9550917783945954
sVotherwis
p992
F3.1492879446092625
sVproblem
p993
F2.6908699416280544
sVpm
p994
F1.285445956291296
sVconnect
p995
F3.7555375202941557
sVtaylor
p996
F3.778323316220744
sVad
p997
F3.085176135660799
sVevalu
p998
F3.933114405932202
sVcertain
p999
F3.611269231557578
sVam
p1000
F3.792507951212701
sVnovemb
p1001
F2.316230442714023
sVimplement
p1002
F3.579283562406228
sVfile
p1003
F1.69680327031512
sVeric
p1004
F3.751789858193916
sVfill
p1005
F3.8403894374459147
sVdetail
p1006
F2.451034369974743
sV40
p1007
F3.782171941882039
sVevent
p1008
F3.0028706497085818
sVfield
p1009
F3.559542661599991
sVbook
p1010
F2.9876567810727543
sV5
p1011
F2.595442061684315
sVfutur
p1012
F2.833506101245496
sVrememb
p1013
F3.6353932084520926
sVmonday
p1014
F2.0157961980437884
sVjune
p1015
F3.281162981810524
sVstay
p1016
F3.4222887821662114
sVinvoic
p1017
F3.899312510442761
sVreduc
p1018
F3.4814010951834793
sVcoordin
p1019
F3.3775640991499927
sVinvest
p1020
F3.3208822615950973
sVrule
p1021
F3.5771871255797
sVeol
p1022
F3.9301293290887487
sVemerg
p1023
F3.7381673565126197
sVpotenti
p1024
F3.1678899277794383
sVdecemb
p1025
F2.879860210617047
s.