(dp0
S''
p1
F2.975818528973403
sVrepresent
p2
F3.667876977798152
sVcode
p3
F3.7697373993631955
sVconsider
p4
F3.1065527169768647
sVlimited
p5
F4.00805574869664
sVglobal
p6
F3.0289481603856503
sVdollar
p7
F3.8525953109873186
sVfocus
p8
F3.365880008643128
sVmonth
p9
F2.456532067230733
sVsteve
p10
F2.8655680280213853
sVmanager
p11
F2.9730989189207615
sVlegal
p12
F2.9687628687667145
sVhereto
p13
F3.8670978723539453
sVgo
p14
F1.7160771650965732
sVfollow
p15
F1.796325941494758
sVsettlement
p16
F3.69881867268303
sVcontent
p17
F3.7553830859115123
sVpeter
p18
F4.021912783358067
sVmillion
p19
F3.2577076815324
sVelectricity
p20
F3.6843337397616627
sVtw
p21
F3.8617998467163903
sVapril
p22
F3.367490314949232
sVsend
p23
F1.1025928642869582
sVenvironment
p24
F4.079344832443942
sV0
p25
F3.8090545027040306
sVcharge
p26
F3.17196064138599
sVprogram
p27
F3.1146549738276192
sVsuite
p28
F4.009585970877408
sVsorry
p29
F3.54900639445437
sVinclude
p30
F2.074232330675996
sVpresentation
p31
F3.5204330220103137
sVworth
p32
F4.005002311209751
sVsent
p33
F2.9008161545512734
sVbrown
p34
F3.761339029664364
sVfax
p35
F2.3052556186715147
sVconfirmation
p36
F4.005002311209751
sVstreet
p37
F3.177942713063538
sVrisk
p38
F2.6583555836289743
sVconfidential
p39
F3.0324004077728794
sVoutside
p40
F3.5626252819891735
sVfar
p41
F3.364272291255031
sVrise
p42
F4.009585970877408
sV713
p43
F2.77381182796851
sVportland
p44
F4.026574796463878
sVevery
p45
F3.2483651773600837
sVdecide
p46
F3.5055212825146307
sVfall
p47
F3.6463476209455763
sVword
p48
F3.5764322074352766
sVticket
p49
F4.047031843453398
sVdifference
p50
F3.9989232651333677
sVgrant
p51
F4.00805574869664
sVminute
p52
F3.6777185006429436
sVfour
p53
F3.5270274877355945
sVschool
p54
F3.8344365759754475
sVlevel
p55
F3.1772762685203775
sVtransmission
p56
F3.5045966407474123
sVcause
p57
F3.653830285468248
sVlist
p58
F2.1891452904026347
sVwednesday
p59
F2.232740637694963
sVwait
p60
F3.6036105284892215
sVtry
p61
F2.619470435830194
sVp
p62
F3.182620302614649
sVprogress
p63
F3.9343847439957966
sVteam
p64
F2.5396037689985875
sVsmall
p65
F3.498147977220879
sVlisa
p66
F3.6015717917993735
sVguy
p67
F3.3256696250929934
sVestoppel
p68
F3.899489368145181
sVenjoy
p69
F3.9329652973415703
sVel
p70
F3.829308359608528
sVforce
p71
F3.761339029664364
sVandor
p72
F3.123454527779468
sVmiller
p73
F3.9329652973415703
sVpaso
p74
F3.927307573621712
sVamong
p75
F3.8140796389067035
sVdirect
p76
F3.2455080325593038
sVsign
p77
F2.9104633479292765
sVpast
p78
F3.0492563721022146
sVacross
p79
F3.8344365759754475
sVrate
p80
F2.9730989189207615
sVcost
p81
F2.790867896733722
sVdesign
p82
F3.853905068869382
sVpass
p83
F3.694339381878984
sVdownload
p84
F3.532714706856184
sVsubmit
p85
F3.5298670542436725
sVclick
p86
F2.684059810027859
sVeven
p87
F2.8277554352603596
sVindex
p88
F3.903613085329043
sVpower
p89
F2.1680402125661042
sVrichard
p90
F3.2376927174693115
sVagenda
p91
F4.087588902219024
sVsection
p92
F3.71010547421766
sVresume
p93
F3.8831624748577522
sVfeedback
p94
F3.906371707768123
sVmw
p95
F3.9676007940043267
sVcurrent
p96
F2.6298213045538503
sVversion
p97
F3.359464589686928
sVcapital
p98
F3.492653457903238
sVreply
p99
F2.9867715409926006
sVnet
p100
F3.3610645900282616
sV1400
p101
F3.8591613227582093
sVever
p102
F3.8344365759754475
sVpublic
p103
F3.387019007166312
sVfull
p104
F3.2201545618728473
sVtransportation
p105
F3.8178651323861854
sVlee
p106
F4.100922433088489
sVexchange
p107
F3.539390935754928
sVnever
p108
F3.6657030638985324
sVcommercial
p109
F3.4515027502917635
sVlet
p110
F1.6066913820146782
sVaddress
p111
F2.512852130286118
sVnovember
p112
F2.3684950768074318
sVstrong
p113
F3.689880065682219
sVchange
p114
F1.9393752639731026
sVenron
p115
F1.8613557643684675
sVbox
p116
F4.0892459034266535
sVgreat
p117
F2.7050266623707673
sVbalance
p118
F3.649547623676247
sVsender
p119
F3.281083471983051
sVahead
p120
F3.810308421363624
sVreceive
p121
F1.8443461409440962
sV31
p122
F3.4799491128034723
sV30
p123
F2.933168141623033
sVexperience
p124
F3.364272291255031
sVcredit
p125
F2.841470476442325
sVamount
p126
F3.1203029336171233
sVsuggestion
p127
F4.028133643233169
sVpick
p128
F3.810308421363624
sVaction
p129
F3.1839607853891008
sVopinion
p130
F3.9883730542382154
sVbob
p131
F3.1995068909793782
sVauthorize
p132
F3.575439651522525
sVvia
p133
F3.2892467826222123
sVlove
p134
F3.8912926009410027
sVfamily
p135
F3.9188805574598313
sVwin
p136
F4.0375381012611475
sVmanage
p137
F3.2036024598441153
sVprefer
p138
F3.6976969675738296
sVprivate
p139
F3.960285472427954
sVreplace
p140
F3.9676007940043267
sVput
p141
F2.74054836738343
sVthursday
p142
F2.2734546933085342
sVperhaps
p143
F4.023464374049485
sVapply
p144
F3.7157970092174475
sVtotal
p145
F2.890260640611757
sVestablish
p146
F3.853905068869382
sVobligation
p147
F4.011118538227186
sVmarket
p148
F2.206406506963404
sVsummer
p149
F3.966133442310377
sVuse
p150
F1.7861634217130773
sVfee
p151
F3.8254793823714306
sVfeb
p152
F4.09590150203839
sVdiscus
p153
F3.3699106469092976
sVwould
p154
F1.3987057688343731
sVlose
p155
F3.532714706856184
sVvisit
p156
F3.0045497870138846
sVtwo
p157
F2.3286468500136612
sVnext
p158
F2.1819785724675413
sVlive
p159
F3.8578446668734623
sVcall
p160
F1.5826037250089389
sVasset
p161
F3.314908568136695
sVthird
p162
F3.5606683342022127
sV6
p163
F2.916091400646278
sVcare
p164
F3.839591226564112
sVtype
p165
F3.2215463505456694
sVtell
p166
F2.77916659310617
sVtoday
p167
F2.0700403774883354
sV1000
p168
F3.812820985499507
sVtax
p169
F3.792895046038426
sVcompany
p170
F2.176086092859736
sVaward
p171
F2.8568258645255193
sVaware
p172
F3.842178550129063
sVphone
p173
F2.536088826891143
sVeffect
p174
F3.774568326632861
sVannounce
p175
F3.4480031841654992
sVcentral
p176
F3.748282464361936
sVhold
p177
F2.8072991198974098
sVeffort
p178
F3.0814211460729157
sVpotential
p179
F3.356272248587955
sVbehalf
p180
F3.927307573621712
sVmust
p181
F2.977453852314134
sVcustomer
p182
F2.7487610783380574
sVinvolve
p183
F3.4917406326458784
sVaccount
p184
F2.8937667799410445
sVkaminski
p185
F3.544187108018421
sVjoin
p186
F3.185974884760802
sVroom
p187
F3.354679891563592
sVhour
p188
F2.2484067544393618
sVf
p189
F3.673332528699689
sV1999
p190
F4.051812729053741
sVchallenge
p191
F4.0328248168090495
sVwork
p192
F1.7089936738214588
sVportlandwestdeskcalifornia
p193
F2.9217513077031274
sVremain
p194
F2.9747297972382065
sVclient
p195
F3.8512872663273034
sVmr
p196
F3.723819974888447
sVtranswestern
p197
F4.097572346203208
sVmeet
p198
F2.373254157770685
sVdec
p199
F3.931547862660597
sVexample
p200
F3.811563914309456
sVcontrol
p201
F3.204971385451457
sVclaim
p202
F3.868426776203999
sVfigure
p203
F3.9530232763861695
sVgive
p204
F1.9947850484515217
sVprocess
p205
F2.45071621885073
sVdecember
p206
F2.9321248447104558
sVshare
p207
F3.166014142198264
sVelectronic
p208
F3.9216816797395433
sVaccept
p209
F3.685440546736854
sVhigh
p210
F2.68446672763266
sVsomething
p211
F3.2512305088333697
sVwant
p212
F1.9411155718666546
sVhit
p213
F3.8872192755533668
sVdrive
p214
F3.637864006967761
sVdavid
p215
F2.68446672763266
sVoccur
p216
F3.8764374999500784
sVguarantee
p217
F3.924490670350598
sVinformation
p218
F1.7904823653036777
sVunited
p219
F3.9329652973415703
sVend
p220
F2.488134433769107
sVgoal
p221
F3.9588288079314897
sVturn
p222
F3.3944417216590788
sVprovide
p223
F2.130857664274746
sVie
p224
F3.925898130118478
sVdiscussion
p225
F3.05160379102052
sVsix
p226
F3.98987342961345
sVspreadsheet
p227
F3.90223662262032
sVid
p228
F3.3985893841791603
sVwrite
p229
F2.9569347738797496
sVbrian
p230
F3.5985214589817502
sVsunday
p231
F3.585409823842375
sVattachment
p232
F3.035864614470549
sVassistant
p233
F3.8015638309748727
sVanswer
p234
F3.3586655484937955
sVinstead
p235
F3.925898130118478
sVflow
p236
F3.314908568136695
sVstock
p237
F3.555792654138729
sVproduct
p238
F2.9043595649912586
sVbuilding
p239
F4.031258645776305
sVattend
p240
F3.2620492223605373
sVfw
p241
F2.839092354037357
sVmay
p242
F1.6832424780998607
sVwatch
p243
F3.966133442310377
sVearlier
p244
F3.6211096883557135
sVspot
p245
F4.001958168828522
sVwholesale
p246
F3.5157491726978876
sVreflect
p247
F3.6452832248897895
sVlot
p248
F3.3812836370815678
sVlay
p249
F3.8777788817742795
sVdate
p250
F1.7227443732964358
sVpresident
p251
F3.1542261864462215
sVlaw
p252
F3.649547623676247
sVdata
p253
F2.7645094353061963
sVresponse
p254
F3.2685970813316687
sVa
p255
F3.3126176163901393
sVpurchase
p256
F3.0393408636259096
sVshort
p257
F3.3027503636568856
sVnatural
p258
F3.158140085767358
sVremember
p259
F3.6999416374276537
sVeffective
p260
F3.3042620797422075
sVsusan
p261
F3.5824083208386184
sVbind
p262
F3.6788180059763604
sVsit
p263
F3.7673306593326306
sVappreciate
p264
F3.3057760845734228
sVst
p265
F3.8003208227352756
sVrather
p266
F3.6865485800912157
sVchief
p267
F3.6463476209455763
sVmaintain
p268
F3.8912926009410027
sVresponsibility
p269
F3.799079357647211
sVallow
p270
F2.998960057535098
sVenter
p271
F3.2569859204039906
sVoperate
p272
F3.3699106469092976
sVorder
p273
F2.654793339608715
sVtalk
p274
F2.5761800943054447
sVtravel
p275
F4.045443280768261
sVhouston
p276
F2.2734546933085342
sVhelp
p277
F2.1542934628688832
sVoffice
p278
F2.3170237567243688
sVseptember
p279
F2.916091400646278
sVmove
p280
F2.66671716927622
sVsoon
p281
F2.863131973223504
sVmeter
p282
F3.9133017424327927
sVtrade
p283
F2.6975762967822554
sVcourse
p284
F3.4799491128034723
sVpaper
p285
F3.6865485800912157
sVscott
p286
F3.3554757531256953
sVcommittee
p287
F3.5904324361086664
sVaffect
p288
F3.785524005293836
sVstill
p289
F2.40137392436452
sV24
p290
F3.2132245272081774
sV25
p291
F3.0169582936577144
sV26
p292
F3.2063421875852356
sV27
p293
F3.452379558765298
sVgroup
p294
F2.0439632805581365
sVthank
p295
F2.1753519682702986
sV22
p296
F3.326442721381982
sV23
p297
F3.387019007166312
sVpersonal
p298
F3.7033181178442596
sVll
p299
F2.622143723654816
sVjim
p300
F3.2635006014251844
sV28
p301
F3.5774257494941546
sV29
p302
F3.4917406326458784
sVactually
p303
F3.785524005293836
sVlate
p304
F2.784100444783366
sVproduction
p305
F3.4935671171719127
sVcondition
p306
F3.68212379411086
sVpolicy
p307
F3.4585388391258327
sVmail
p308
F3.254823757399495
sVmain
p309
F3.909137961261013
sVmight
p310
F2.8641056831349054
sVenronmessagingadministration
p311
F4.021912783358067
sVtexas
p312
F2.9818278341372473
sVgood
p313
F2.210452024490992
sVreturn
p314
F2.9655231251123038
sVfinance
p315
F3.4462579830244686
sVentire
p316
F3.9676007940043267
sVceo
p317
F4.056616581366386
sVpropose
p318
F3.240527588255159
sVdan
p319
F3.8578446668734623
sVmaterial
p320
F3.0486703773593984
sVcover
p321
F3.2334554229937966
sViii
p322
F4.0892459034266535
sVbreak
p323
F3.8912926009410027
sVmention
p324
F3.4799491128034723
sVfebruary
p325
F3.0979000053900014
sVhalf
p326
F3.9458134398194193
sVfront
p327
F4.011118538227186
sVfeature
p328
F3.9588288079314897
sVnov
p329
F3.7661294579869966
sVinvestor
p330
F3.9230851887418634
sVdiscuss
p331
F2.650850116833675
sVbank
p332
F3.519494495428049
sVterm
p333
F2.7087727645663797
sVdocument
p334
F3.045161601829719
sVholiday
p335
F3.964668240583049
sVname
p336
F2.3801352619601595
sVjanuary
p337
F2.6500633347317195
sVuniversity
p338
F3.7649296977950923
sVcell
p339
F3.3723368510917617
sVl
p340
F3.0899318357408245
sVparticipant
p341
F3.6581313673676386
sVaffiliate
p342
F3.4019199451263247
sVinterview
p343
F3.6357543015439115
sVquarter
p344
F3.7412319063652695
sVcomputer
p345
F3.9188805574598313
sVside
p346
F3.5204330220103137
sVmean
p347
F3.207714871397208
sVweek
p348
F1.9267047162704876
sVeveryone
p349
F3.2084019205482464
sVfinancial
p350
F2.788155417674603
sVdirectly
p351
F3.411978705544171
sVavoid
p352
F4.0328248168090495
sVgeneration
p353
F3.7782068994767695
sVmichael
p354
F2.925887818254908
sVenergy
p355
F2.155491785360992
sVhard
p356
F3.5073731348957042
sVreduce
p357
F3.575439651522525
sVplant
p358
F3.3626671544738027
sVrelated
p359
F3.8777788817742795
sVsolution
p360
F3.685440546736854
sVinternal
p361
F3.970541972595143
sVoil
p362
F3.6887683368295283
sVtrading
p363
F2.6808104164295496
sVexpect
p364
F2.786801932243527
sVyear
p365
F2.180994078171928
sVcounterparty
p366
F3.7377251815560593
sVoperation
p367
F2.8987969716340434
sVsummary
p368
F3.4187411996164685
sVevent
p369
F3.0569057180207038
sVspecial
p370
F3.4953969438489887
sVreally
p371
F3.158140085767358
sVcanada
p372
F3.6810206500387026
sVleave
p373
F2.7205178660246623
sVregulatory
p374
F3.7010658646399346
sVnetwork
p375
F3.6442199605684595
sVitem
p376
F3.423843251500364
sVprofit
p377
F4.0909056548450184
sVmiss
p378
F3.494481611977301
sVrobert
p379
F2.9622938435115884
sVsince
p380
F2.654793339608715
sVenforceable
p381
F3.8872192755533668
sVpublish
p382
F3.6118072956934
sVresearch
p383
F3.0545458349196126
sVincrease
p384
F3.1259829741328264
sVre
p385
F3.1329693474208065
sV7
p386
F3.1065527169768647
sVinternet
p387
F3.540348331711255
sVprint
p388
F3.909137961261013
sVbankruptcy
p389
F3.991376059497985
sVissue
p390
F2.1386087306792483
sVcorrect
p391
F3.617999265941321
sVassociate
p392
F3.110284064589723
sVfrank
p393
F3.671146735479709
sVfriday
p394
F2.1189956807878594
sVstory
p395
F3.9458134398194193
sVfree
p396
F2.58351150544275
sVstandard
p397
F3.54900639445437
sVquick
p398
F4.000439565651332
sVreason
p399
F3.286270589949166
sVbase
p400
F2.6783802815762576
sVcalifornia
p401
F3.102835240576732
sVyork
p402
F3.322583202889804
sVask
p403
F2.4649929052074127
sVregion
p404
F3.796601041632744
sVestimate
p405
F3.4935671171719127
sVgenerate
p406
F3.853905068869382
sVwall
p407
F3.9588288079314897
sVadditional
p408
F2.7163073334883188
sVadvance
p409
F3.799079357647211
sVg
p410
F4.085934642122997
sVlaunch
p411
F3.9838853877688276
sVrule
p412
F3.683228156453913
sVcould
p413
F2.0691600957413505
sVkeep
p414
F2.669921016630281
sVthing
p415
F2.8758647603280245
sVamerican
p416
F3.452379558765298
sVproduce
p417
F3.855216544467193
sVplace
p418
F2.6739403146456726
sVw
p419
F3.115907322144085
sVenough
p420
F3.629451759673109
sVdavis
p421
F3.7953641830953475
sVretail
p422
F4.084283114084525
sVthink
p423
F2.089605252336526
sVsouth
p424
F3.812820985499507
sVfirst
p425
F2.306091622621557
sVmajor
p426
F3.516684189128794
sValready
p427
F2.83814268634965
sVsimply
p428
F3.903613085329043
sVrevenue
p429
F3.925898130118478
sVfeel
p430
F2.938925812593038
sVrelate
p431
F3.3295410972146517
sVnumber
p432
F2.099079719780446
sVone
p433
F1.8116810056938832
sVfacility
p434
F3.5213724302522498
sVchoose
p435
F3.98987342961345
sVnotify
p436
F3.4763487488782943
sVanother
p437
F2.7733668891402576
sVcarry
p438
F3.9794177705091114
sVtel
p439
F3.947251254589047
sVmessage
p440
F1.0310761950689127
sVopen
p441
F2.864592893863179
sS'tomorrow'
p442
F2.972555883338587
sVnegotiate
p443
F4.043857237612626
sVcity
p444
F3.556765890225281
sVlittle
p445
F3.2222429719601178
sVmanagement
p446
F2.5920096168107416
sVsheet
p447
F3.7330685957261083
sVservice
p448
F2.0422487494908963
sVindicate
p449
F3.4727613010846383
sVtop
p450
F3.3233539158373953
sVsystem
p451
F2.3097224044344657
sVleast
p452
F3.3731468956885062
sVgrow
p453
F3.976450409281309
sVanyone
p454
F2.9840220204262313
sVattach
p455
F2.0129186588761767
sV2
p456
F1.9707750178410826
sVdraft
p457
F3.2173767823089445
sVstatement
p458
F3.675523110079508
sVtom
p459
F3.411136600231249
sVmaster
p460
F3.889932981424963
sVwhite
p461
F3.8845129139556236
sVjohn
p462
F2.3687918567472863
sVfinal
p463
F2.3467742346062175
sVwilliams
p464
F3.5204330220103137
sVoption
p465
F2.842900069251919
sVrelationship
p466
F3.982393963182157
sVseason
p467
F3.7697373993631955
sVserve
p468
F3.6005539800066724
sVimmediate
p469
F4.09590150203839
sVplus
p470
F4.031258645776305
sVpart
p471
F2.7976814593186634
sVunsubscribe
p472
F3.6810206500387026
sVattempt
p473
F3.7782068994767695
sVjuly
p474
F3.1873198748761347
sVbelieve
p475
F2.783201568318349
sVdaren
p476
F3.828030404163036
sV11
p477
F2.99728921337028
sV10
p478
F2.5329359078315274
sV13
p479
F3.2635006014251844
sV12
p480
F2.855376238758255
sV15
p481
F2.8031659337608232
sV14
p482
F3.2490807408968774
sV17
p483
F3.1739506917940004
sV16
p484
F3.1806129416194167
sV19
p485
F3.133606899243486
sV18
p486
F3.2526662592594744
sVrequire
p487
F2.480471561023538
sVsecond
p488
F3.216683541379968
sVproject
p489
F2.7702578482170606
sVmatter
p490
F3.435850256814087
sVfuture
p491
F2.885770735338905
sVfriend
p492
F3.9486911396470346
sVlight
p493
F3.8090545027040306
sVcountry
p494
F3.9049914452991645
sVregister
p495
F3.966133442310377
sVsan
p496
F3.5045966407474123
sVdelay
p497
F3.8499809304132477
sVofficial
p498
F3.786748745189732
sVmind
p499
F3.8981185660114024
sVsay
p500
F2.307486517533182
sVneed
p501
F1.4640246723989185
sV1
p502
F1.9440228323696496
sVseek
p503
F3.8318691804702016
sVkevin
p504
F3.060456017607871
sVinvite
p505
F4.029694923800122
sVsell
p506
F2.9473602326523296
sVinform
p507
F3.942943997391467
sVresponsible
p508
F3.730748409070411
sVable
p509
F2.706273804498741
sVbillion
p510
F3.6570543613400006
sVinvestment
p511
F3.4638485861140627
sVnote
p512
F2.374447475334727
sValso
p513
F1.7606342984144776
sVcontact
p514
F1.9374451340552294
sVtake
p515
F1.8909163536023161
sVonline
p516
F3.045745543452152
sVancillary
p517
F3.00175101664512
sVperformance
p518
F3.6689657095333486
sVconcern
p519
F2.94102775766541
sVhello
p520
F4.072798164217628
sVcourt
p521
F4.005002311209751
sV200
p522
F3.792895046038426
sVbegin
p523
F2.8008770794770714
sVsure
p524
F2.6020786931183246
sVunless
p525
F3.7261241233732973
sVelectric
p526
F3.617999265941321
sVthough
p527
F3.614898488263073
sVtrack
p528
F3.673332528699689
sVpark
p529
F4.003479081669228
sVprice
p530
F2.1953649895176945
sVreach
p531
F3.246935584550489
sVcoordinate
p532
F4.061443622114702
sV01
p533
F3.748282464361936
sVplan
p534
F2.2619186834179272
sVletter
p535
F3.2306405020639866
sVorganization
p536
F3.6474131511476147
sVnothing
p537
F3.90223662262032
sVamerica
p538
F2.783201568318349
sVsally
p539
F3.687657842545501
sVenroncom
p540
F2.573262513825923
sVappear
p541
F3.284785808681587
sVdelivery
p542
F3.244795020051378
sVespecially
p543
F4.048622933685641
sVhourahead
p544
F2.78185476676797
sVeuropean
p545
F4.009585970877408
sVclear
p546
F3.4145092847098883
sVlater
p547
F3.270058001971343
sVrequest
p548
F2.282671348413458
sVsale
p549
F2.8457654007252056
sVface
p550
F3.6976969675738296
sVfederal
p551
F3.747103913842492
sVhear
p552
F3.086883982116571
sVsenior
p553
F3.485374080900337
sVaway
p554
F3.639978172660096
sVfact
p555
F3.501827834179279
sVreserve
p556
F3.2391091483010253
sVthomas
p557
F3.9400827651104344
sVshow
p558
F2.8151531681249513
sVtext
p559
F4.051812729053741
sVbring
p560
F2.9922933661769084
sVlarge
p561
F3.119673804939562
sVsession
p562
F3.9202801378142547
sVrelation
p563
F4.05822300741466
sVparticipate
p564
F3.685440546736854
sVportfolio
p565
F4.0126534579452695
sVfine
p566
F3.950133100963936
sVfind
p567
F2.1896414452131108
sVstaff
p568
F3.332649102824519
sVimpact
p569
F3.523253898351955
sVaccess
p570
F2.817939979032131
sS'copy'
p571
F2.3708717861852784
sVcopyright
p572
F3.5724678811333677
sVlouise
p573
F2.9048667930011187
sVexplain
p574
F3.9530232763861695
sV3
p575
F2.313647276307763
sVjan
p576
F3.6657030638985324
sVunable
p577
F3.707837899549879
sVrick
p578
F3.6015717917993735
sVpretty
p579
F3.9617442618916137
sVequity
p580
F3.8845129139556236
sVemployee
p581
F2.8096027375943025
sV8
p582
F3.2084019205482464
sVimprove
p583
F3.9617442618916137
sVlocal
p584
F3.9343847439957966
sVoct
p585
F3.638920531101961
sVhope
p586
F2.8142259543357593
sVdo
p587
F2.9033458801604124
sVdistribute
p588
F3.970541972595143
sVhandle
p589
F3.6865485800912157
sVtherefore
p590
F3.573457490318534
sVget
p591
F1.5211124383268366
sVcommodity
p592
F3.71010547421766
sVexpress
p593
F3.8140796389067035
sVstop
p594
F3.735394178169584
sVkind
p595
F3.708971044147048
sVlikely
p596
F3.4019199451263247
sVb
p597
F3.3507100570526807
sVnew
p598
F1.7509863702247574
sVreport
p599
F2.188897305280471
sVentity
p600
F3.4367134420208987
sVtarget
p601
F3.8644453509048144
sVresolve
p602
F3.7769925702443676
sVresource
p603
F2.9922933661769084
sVh
p604
F3.8254793823714306
sVboard
p605
F3.4772476253433116
sVconversation
p606
F3.970541972595143
sVremove
p607
F3.7215211233013363
sVmorning
p608
F2.727716711426477
sVbad
p609
F3.80530215308548
sVcontain
p610
F2.8803103097585887
sVrelease
p611
F3.357867145257771
sVlondon
p612
F3.4427766914319564
sVconduct
p613
F4.053411450417438
sVview
p614
F2.794041782871214
sVrespond
p615
F3.387019007166312
sVeurope
p616
F3.6484798179154168
sVrequirement
p617
F3.501827834179279
sVset
p618
F2.5871974661216735
sVreference
p619
F3.6602888655076598
sVnational
p620
F3.760144999671756
sVaccord
p621
F3.4691866770816793
sVsee
p622
F1.7105293006588551
sVindividual
p623
F3.1127793871571243
sVresult
p624
F2.90639002254164
sVfail
p625
F3.4153542361754523
sVclose
p626
F2.7890587601027894
sVyes
p627
F3.609751796511304
sVbest
p628
F2.54596196774108
sVsubject
p629
F1.005618177236988
sV02
p630
F4.087588902219024
sVpractice
p631
F3.820396779307965
sVdetect
p632
F3.0056714921230845
sVcapacity
p633
F3.1445079369773
sVpurpose
p634
F3.4790478058474594
sVreview
p635
F2.0911781096431428
sVcurrently
p636
F2.753110802464523
sVplease
p637
F0.8417939032313515
sVwo
p638
F3.8015638309748727
sVstate
p639
F2.6873197966150664
sVr
p640
F3.3141443342439394
sVvarious
p641
F3.711241192681587
sVprobably
p642
F3.1732869015273435
sVweekly
p643
F3.8764374999500784
sVapproach
p644
F3.6810206500387026
sVemail
p645
F1.5432269934451688
sVavailable
p646
F2.3133664168760615
sVken
p647
F3.7388927240120973
sVnotice
p648
F3.228534499179598
sVattention
p649
F3.7637313753029837
sVrecently
p650
F3.5774257494941546
sVaugust
p651
F3.100364578418163
sVextend
p652
F3.833152054283091
sVimportance
p653
F3.761339029664364
sVsole
p654
F3.6420968175203816
sVdeliver
p655
F3.467404145415396
sVhowever
p656
F2.5754499007717233
sVjr
p657
F3.842178550129063
sVjob
p658
F3.26932727486539
sVjoe
p659
F3.3318711953562743
sVkey
p660
F3.3459669651566677
sVpercent
p661
F4.018816805652938
sV20
p662
F2.6092256108817695
sVdebt
p663
F4.051812729053741
sVcome
p664
F2.307765730155406
sVproblem
p665
F2.743134575721463
sV21
p666
F3.321043556704211
sVactual
p667
F4.0422737060069815
sVc
p668
F2.8263473148681038
sVlast
p669
F2.137194969840568
sValways
p670
F3.605653430119022
sS'many'
p671
F2.74054836738343
sVtrader
p672
F3.357867145257771
sVannual
p673
F3.9632051825312886
sS'contract'
p674
F2.2376750718079346
sVetc
p675
F3.2899922168721605
sVs
p676
F1.0496316452841459
sVmonitor
p677
F3.9720158122134435
sVvariance
p678
F2.9873223534548883
sVtx
p679
F3.5794157999021645
sVapprove
p680
F3.4384420509215166
sVfix
p681
F3.9202801378142547
sVotherwise
p682
F3.2015525787026715
sVcomment
p683
F2.6575628764927353
sVsuggest
p684
F3.3507100570526807
sVrelevant
p685
F3.5298670542436725
sVco
p686
F3.5685192086779516
sVstudy
p687
F4.055012731784411
sVjeff
p688
F2.8803103097585887
sVcc
p689
F1.5611982254469994
sVca
p690
F3.019231021908717
sVothers
p691
F3.063424259620946
sVperiod
p692
F3.272986261750432
sVkaren
p693
F3.780639990701411
sVgreg
p694
F3.4656247855153186
sVnews
p695
F2.9709285436792117
sVcancel
p696
F3.9559218291401805
sVtable
p697
F3.7412319063652695
sV100
p698
F3.2222429719601178
sVspeak
p699
F3.1548774401325415
sVconference
p700
F2.9720131424840157
sVdecline
p701
F3.9928809506774052
sVfinally
p702
F4.074430817641513
sVraise
p703
F3.707837899549879
sVbasis
p704
F2.817939979032131
sVaddition
p705
F3.2236376723256672
sVwest
p706
F3.1620693639072477
sVcreate
p707
F2.68446672763266
sVacceptance
p708
F3.750643740547616
sVthree
p709
F3.010170937284314
sVmark
p710
F2.428100188827047
sVcommission
p711
F3.4665140697002026
sVmuch
p712
F2.5667289152662787
sVpg
p713
F3.91052396286889
sVinterest
p714
F2.808680653619334
sVcertain
p715
F3.663533865650987
sVprivilege
p716
F3.3960987228667086
sVproposal
p717
F3.839591226564112
sVkitchen
p718
F3.387841037627727
sS'meeting'
p719
F2.285944673758427
sVmary
p720
F3.3475454974497176
sV500
p721
F3.673332528699689
sVpm
p722
F1.3377105903847049
sVfirm
p723
F3.010170937284314
sVmike
p724
F2.7306960709404184
sVkimberly
p725
F3.960285472427954
sVvince
p726
F2.8082199302755475
sVgas
p727
F1.988880521473356
sVandrew
p728
F4.0391141457166135
sVelse
p729
F3.339677636249104
sVfund
p730
F3.6463476209455763
sVdave
p731
F3.430686734154038
sVunderstand
p732
F3.0551352838019907
sVrepresentative
p733
F3.914693531105615
sVdemand
p734
F3.4890071457502176
sVdespite
p735
F4.099245986761237
sVevidence
p736
F3.552878616136879
sVformer
p737
F4.079344832443942
sVpresent
p738
F3.4393074771979455
sVcase
p739
F2.9585394813650514
sVsave
p740
F3.7055754551459095
sVlook
p741
F1.9721715267962223
sVbill
p742
F2.733256891802092
sVcash
p743
F3.2292360074510884
sVvalue
p744
F2.890260640611757
sVn
p745
F4.031258645776305
sVschedulingiso
p746
F2.9222674367468433
sVnear
p747
F3.8460721306481953
sVerror
p748
F3.0062328168641774
sVsituation
p749
F3.6527578993064953
sVproperty
p750
F3.4375773729601624
sVk
p751
F3.71010547421766
sVprocedure
p752
F4.017272403801565
sVtim
p753
F3.6657030638985324
sVsupply
p754
F3.3012409294080314
sVtechnical
p755
F4.084283114084525
sVve
p756
F2.994510661985556
sValmost
p757
F4.035964536813717
sVsite
p758
F3.020938964253873
sVparse
p759
F2.9171180947816393
sVplayer
p760
F3.974970024110875
sVsomeone
p761
F3.285527923743475
sVready
p762
F3.5794157999021645
sVpartner
p763
F3.820396779307965
sVactivity
p764
F3.2271329572543093
sVtechnology
p765
F3.4718664464387947
sVseem
p766
F3.29522587367827
sVdifferent
p767
F3.4145092847098883
sVpas
p768
F3.9077538779950745
sVdevelop
p769
F3.3507100570526807
sVprior
p770
F3.1866471536936842
sVperform
p771
F3.7261241233732973
sVpay
p772
F2.8132995994756285
sVmake
p773
F1.6772785421282332
sVadministration
p774
F4.035964536813717
sVeric
p775
F3.8040544922873245
sVmember
p776
F3.032976942813352
sVlaura
p777
F4.0892459034266535
sV9
p778
F3.3195062773853246
sVparty
p779
F2.799506277343293
sVadvise
p780
F3.3952698790563076
sVseveral
p781
F3.0011922013190384
sVbid
p782
F3.820396779307965
sVdifficult
p783
F3.914693531105615
sVdevelopment
p784
F3.0463298262616454
sVindependent
p785
F3.9049914452991645
sVjeffrey
p786
F3.753010605557882
sVmichelle
p787
F3.54900639445437
sVhttp
p788
F1.9403417277576178
sVupon
p789
F3.4264040723620375
sVyesterday
p790
F3.2271329572543093
sVhand
p791
F3.723819974888447
sVdirector
p792
F2.99728921337028
sVaverage
p793
F3.727278191591404
sVharris
p794
F4.080988218187672
sVuser
p795
F3.315673386529617
sVkim
p796
F3.744750971580465
sValong
p797
F3.3960987228667086
sVopportunity
p798
F2.910973682209298
sVimplement
p799
F4.006527864518588
sVrecent
p800
F3.2649540900531675
sVtransaction
p801
F2.8534466674890404
sVcenter
p802
F3.028373942741391
sVdatabase
p803
F3.944377689393315
sVwhole
p804
F3.91052396286889
sVwell
p805
F2.1134618875562006
sVanalysis
p806
F3.5157491726978876
sVthought
p807
F3.490828639878609
sVperson
p808
F3.072982277427051
sVapproval
p809
F3.0844523699761988
sVwithout
p810
F3.0610489615920384
sVpersonnel
p811
F4.079344832443942
sVtelephone
p812
F3.985379040025611
sVposition
p813
F2.7046112937251277
sVmodel
p814
F3.455014606403303
sV800
p815
F3.935806208343174
sVcorporate
p816
F3.4682950140711974
sVspend
p817
F3.754196142151984
sVload
p818
F3.6211096883557135
sVagency
p819
F3.9720158122134435
sVexecute
p820
F3.9202801378142547
sVless
p821
F3.461190188447453
sVmoney
p822
F3.4953969438489887
sVexecutive
p823
F3.2649540900531675
sVobtain
p824
F3.8764374999500784
sVrest
p825
F3.7215211233013363
sVselect
p826
F3.754196142151984
sVidentify
p827
F3.6118072956934
sVthanks
p828
F1.3288581772162134
sVllc
p829
F3.911911888143738
sVworld
p830
F3.2922318594656654
sVpaul
p831
F3.2967262490535045
sVrecommend
p832
F3.903613085329043
sVyet
p833
F3.0838453896844222
sVprevious
p834
F3.8015638309748727
sVweb
p835
F3.0158238635871024
sVcut
p836
F3.672239034878318
sVfield
p837
F3.6128366318625145
sVpoint
p838
F2.5336356979230663
sVsmith
p839
F2.985120921635717
sVday
p840
F1.896823699560948
sVsource
p841
F3.354679891563592
sVadd
p842
F2.7592323782053527
sVinterested
p843
F3.243370518385993
sV4
p844
F2.570353420865239
sVeasy
p845
F3.8140796389067035
sVrole
p846
F3.4862811104409794
sVeast
p847
F3.589425893497265
sVtuesday
p848
F2.242895652706939
sVmatch
p849
F4.079344832443942
sVbuild
p850
F3.441908258898003
sVreal
p851
F3.3626671544738027
sVmarch
p852
F3.190015294297807
sVaround
p853
F3.0539567332825466
sVgovernment
p854
F3.711241192681587
sVread
p855
F3.375580973969386
sVbig
p856
F3.179276936076674
sVcouple
p857
F3.5213724302522498
sVfyi
p858
F3.109661205647132
sVpossible
p859
F2.6751492609948113
sVearly
p860
F2.9709285436792117
sVtest
p861
F3.5645860669311142
sVgame
p862
F3.756571440180891
sVfive
p863
F3.80530215308548
sVknow
p864
F1.3532858999113722
sVdesk
p865
F3.1228234138424584
sVpress
p866
F3.773358405130148
sVimmediately
p867
F3.281083471983051
sVpassword
p868
F3.8499809304132477
sVrecipient
p869
F3.3650758268547145
sVd
p870
F2.781406235699675
sVloss
p871
F3.676620202893881
sVquickly
p872
F3.8578446668734623
sVnecessary
p873
F3.501827834179279
sVlike
p874
F1.7938173692284871
sVsuccess
p875
F3.90223662262032
sVstrictly
p876
F3.552878616136879
sVmanual
p877
F3.9486911396470346
sV50
p878
F3.5176200806336992
sVspecific
p879
F3.467404145415396
sVkaminskihouect
p880
F3.775779713819158
sVbenefit
p881
F3.4656247855153186
sVcontinue
p882
F2.470563950256868
sVeither
p883
F2.977453852314134
sVjames
p884
F3.150327546030564
sVbecome
p885
F3.1786096020512415
sVsecurity
p886
F3.298981041440594
sVpage
p887
F3.226432922223972
sVfuel
p888
F3.8040544922873245
sVright
p889
F2.5118242048915116
sVold
p890
F3.672239034878318
sVdeal
p891
F2.1419152995870494
sVpeople
p892
F2.6551885184322734
sVback
p893
F2.2129888092101018
sVdynegy
p894
F4.06791613662032
sVderivative
p895
F4.085934642122997
sVgrowth
p896
F3.974970024110875
sVlearn
p897
F3.736559000665877
sVpricing
p898
F3.970541972595143
sVinvoice
p899
F3.9838853877688276
sVrespect
p900
F3.9989232651333677
sVdear
p901
F3.339677636249104
sVhome
p902
F3.063424259620946
sVdrop
p903
F3.702191357161669
sVlead
p904
F3.2008702177072426
sVconfirm
p905
F3.019231021908717
sVdecision
p906
F3.2744536134443814
sVshall
p907
F3.7553830859115123
sVper
p908
F2.7383982913025107
sVeverything
p909
F3.830587950314153
sVcritical
p910
F3.8254793823714306
sVunit
p911
F3.231343489790653
sVquote
p912
F4.0422737060069815
sVexpense
p913
F3.8591613227582093
sVleader
p914
F4.0141907372641565
sVofficer
p915
F3.653830285468248
sVlocate
p916
F3.672239034878318
sVmailto
p917
F2.7125329528280298
sVparticular
p918
F4.064674642696149
sVrun
p919
F2.8597314355769337
sVbusiness
p920
F2.202628640739922
sVschedule
p921
F1.8150875836774099
sV300
p922
F3.9301324342572665
sVmarketing
p923
F3.246221553816832
sVnight
p924
F3.4019199451263247
sVagreement
p925
F2.5957270932108742
sVability
p926
F3.8040544922873245
sVoverall
p927
F4.0892459034266535
sVstep
p928
F3.4445158223050836
sVcorp
p929
F2.4019874213162775
sValthough
p930
F3.4718664464387947
sVchairman
p931
F3.69657651927734
sVpost
p932
F3.0393408636259096
sVproceed
p933
F3.8254793823714306
sVpipeline
p934
F3.17196064138599
sVok
p935
F3.5470758919243117
sVanything
p936
F3.0434118201059315
sVpackage
p937
F4.094233444937693
sVindustry
p938
F3.2271329572543093
sVlocation
p939
F3.4953969438489887
sVrange
p940
F4.099245986761237
sVensure
p941
F3.324897126020201
sVafternoon
p942
F3.387019007166312
sVact
p943
F3.6646178765972452
sVsept
p944
F4.064674642696149
sVrevise
p945
F3.559691294554386
sVsoftware
p946
F4.031258645776305
sVdisclosure
p947
F3.3195062773853246
sVferc
p948
F3.6506165708651523
sVown
p949
F4.053411450417438
sVsignificant
p950
F3.651686661924997
sVdirection
p951
F3.997409260302153
sVprohibit
p952
F3.272253392534779
sVpreviously
p953
F3.982393963182157
sVcommunication
p954
F3.243370518385993
sVwithin
p955
F2.943661417338872
sVwashington
p956
F3.72843359322196
sVdue
p957
F2.587566810539538
sV77002
p958
F4.047031843453398
sVappropriate
p959
F3.581409818509029
sVweather
p960
F3.9530232763861695
sVdetermine
p961
F3.371527462136203
sVgary
p962
F3.7146561077816562
sVapproximately
p963
F3.899489368145181
sVstrategy
p964
F3.643157825577476
sVphysical
p965
F3.675523110079508
sVutility
p966
F3.3927874615630524
sVintervention
p967
F4.028133643233169
sVrely
p968
F3.587415842569241
sVfill
p969
F3.911911888143738
sVlog
p970
F2.638724014796329
sVprepare
p971
F3.498147977220879
sVarea
p972
F3.016390917755969
sVtransfer
p973
F3.871089893623483
sVsupport
p974
F2.6477066957777238
sVinitial
p975
F3.9573742622204953
sVquestion
p976
F1.7070008778833625
sVlong
p977
F2.8611873931260496
sVpayment
p978
F3.3650758268547145
sVstart
p979
F1.9745700888096342
sVlow
p980
F3.3467559198327
sVway
p981
F2.566367186197404
sVhouse
p982
F3.7010658646399346
sVforward
p983
F1.8115109810398988
sVhappy
p984
F3.512017825085029
sVfunction
p985
F3.969070301983687
sVago
p986
F3.6005539800066724
sVhead
p987
F3.2796063668400377
sVbuy
p988
F2.975818528973403
sVnorth
p989
F2.727716711426477
sVcomplete
p990
F2.68446672763266
sVform
p991
F2.8912611409453404
sVoffer
p992
F2.464012993321064
sVhr
p993
F4.06791613662032
sVsound
p994
F3.9676007940043267
sVregard
p995
F1.9430528061028802
sVidea
p996
F3.4700791358646987
sVvolume
p997
F2.985670825416415
sVhi
p998
F3.1601027949352067
sVlink
p999
F3.0324004077728794
sVgain
p1000
F3.950133100963936
sVline
p1001
F2.8059194921780057
sVstand
p1002
F4.006527864518588
sVanalyst
p1003
F3.5616463293901894
sVinfo
p1004
F3.4480031841654992
sVpull
p1005
F3.9530232763861695
sVoctober
p1006
F2.235334672872009
sVhappen
p1007
F3.5270274877355945
sVwhether
p1008
F3.1772762685203775
sVwish
p1009
F3.4401736530857945
sVj
p1010
F2.5998323424919505
sVattached
p1011
F3.080816002332815
sVus
p1012
F3.3731468956885062
sVsteven
p1013
F3.770942945018544
sVrecord
p1014
F3.4781473105142093
sVeconomic
p1015
F3.997409260302153
sVlimit
p1016
F3.2877575790707443
sVdistribution
p1017
F3.0318242049335438
sVsimilar
p1018
F3.8434747265905096
sVagree
p1019
F2.9048667930011187
sVassistance
p1020
F3.74240355266216
sVdelete
p1021
F3.2306405020639866
sVwebsite
p1022
F3.28182284355093
sVtaylor
p1023
F3.8318691804702016
sVplay
p1024
F3.429828733243401
sVm
p1025
F2.393128343977769
sVmeasure
p1026
F4.102601694608209
sVam
p1027
F3.8447725853061097
sVlife
p1028
F3.9301324342572665
sVgeneral
p1029
F3.1432192770051524
sVsingle
p1030
F4.082634309094341
sVexist
p1031
F3.403589394595866
sVtogether
p1032
F3.171298170344869
sVfile
p1033
F1.7835148520469248
sVarticle
p1034
F4.006527864518588
sVaccounting
p1035
F3.9734918272415642
sVcheck
p1036
F2.8832850268753316
sVinc
p1037
F2.720096014088434
sVstephen
p1038
F3.982393963182157
sVfiling
p1039
F3.98987342961345
sVmaybe
p1040
F3.9530232763861695
sVfloor
p1041
F3.6118072956934
sVcorporation
p1042
F3.7146561077816562
sVstorage
p1043
F3.8885752079645024
sVdetail
p1044
F2.5696274680202897
sV40
p1045
F3.8357227497861914
sVsaturday
p1046
F3.704446149548758
sVapplication
p1047
F3.409454514048264
sVbook
p1048
F3.060456017607871
sV5
p1049
F2.6477066957777238
sVgeorge
p1050
F3.7215211233013363
sVdepartment
p1051
F3.3467559198327
sVu
p1052
F1.8670905471105057
sVnt
p1053
F1.832296750421456
sVny
p1054
F4.023464374049485
sVpicture
p1055
F4.003479081669228
sVdraw
p1056
F4.005002311209751
sVintend
p1057
F2.8773444153452106
sVmonday
p1058
F2.068280588208843
sVseparate
p1059
F4.080988218187672
sVclass
p1060
F4.0422737060069815
sVwelcome
p1061
F3.865770732145883
sVjune
p1062
F3.3334276159039327
sVupdate
p1063
F2.5294442841724742
sVshirley
p1064
F3.9617442618916137
sVstay
p1065
F3.4917406326458784
sVwilliam
p1066
F3.748282464361936
sVchance
p1067
F3.559691294554386
sVimportant
p1068
F3.192717998645692
sVlunch
p1069
F4.071168172006697
sVchris
p1070
F3.0486703773593984
sVweekend
p1071
F3.500906599659958
sVstructure
p1072
F3.4781473105142093
sVjones
p1073
F3.4665140697002026
sVe
p1074
F2.68446672763266
sVlonger
p1075
F3.8525953109873186
sVvice
p1076
F3.754196142151984
sVassume
p1077
F3.404425165643262
sVmartin
p1078
F3.9343847439957966
sVdaily
p1079
F2.9752740149387136
sVeol
p1080
F3.982393963182157
sV2002
p1081
F2.261385350071952
sVena
p1082
F3.382100964466667
sV2000
p1083
F2.749195200333154
sV2001
p1084
F1.2729537697989612
sVstatus
p1085
F3.064018966745224
sVtime
p1086
F1.516291929182503
sVpush
p1087
F4.102601694608209
sVinternational
p1088
F3.411978705544171
sVoriginal
p1089
F1.3694353865342601
s.