(dp0
Vadvertisement andor
p1
F3.2287567214027346
sVaction may
p2
F3.7508659627707526
sVcreative suite
p3
F3.7675528815557673
sVsecurity act
p4
F3.6562007362296742
sVinvestment advice
p5
F3.4122009277673078
sVflash mx
p6
F3.616153235100399
sVadobe acrobat
p7
F3.5319868102430005
sVperformance statement
p8
F3.786970967412869
sVmessage advertisement
p9
F3.2287567214027346
sVlow price
p10
F3.445608745497464
sVadobe photoshop
p11
F3.3493487476701733
sVmacromedia studio
p12
F3.74379879554766
sVdiffer materially
p13
F3.6691879317564853
sVwindow xp
p14
F3.2428812500063655
sVsecurity exchange
p15
F3.737947403779196
sVxp professional
p16
F3.2820450657740663
sVcurrent price
p17
F3.4711946140650505
sVoffice xp
p18
F3.6391427533250975
sVemail message
p19
F3.121154680569895
sVstatement within
p20
F3.652980121529632
sVmx 2004
p21
F3.5657901252665076
sVcompany s
p22
F3.4667362919233393
sVgo http
p23
F3.3430395784769082
sVcertain action
p24
F3.8055243753086168
sVactual result
p25
F3.6867708023143524
sVcause actual
p26
F3.7968232638558805
sVspecial offer
p27
F3.2093116642835113
sVstatement make
p28
F3.68345037867705
sVplease reply
p29
F3.6223708717112695
sVlook statement
p30
F3.7298125535729203
sVwould like
p31
F3.2550459796226323
sVemail address
p32
F3.3855991928957043
sVpack 2
p33
F3.786970967412869
sVact 1933
p34
F3.655126045099909
sVmean section
p35
F3.7286558154450966
sVact 1934
p36
F3.652980121529632
sVmay identify
p37
F3.7906542128291654
sVandor solicitation
p38
F3.2287567214027346
sVbest regard
p39
F3.2175990045320817
sVcould cause
p40
F3.7001638596507904
sVinformation provide
p41
F3.69232946031818
sVvisit u
p42
F3.647635373370751
sVplease visit
p43
F3.721743345524473
sVadobe premiere
p44
F3.6317704187227737
sVstudio mx
p45
F3.7194497665373736
sVexchange act
p46
F3.655126045099909
sVrisk uncertainty
p47
F3.4587610613489694
sVevent differ
p48
F3.7833012385239067
sVinformation within
p49
F3.8042767145104612
sVthird party
p50
F3.3815058593047045
sVunited state
p51
F3.5131715797462775
sVwithin mean
p52
F3.4947038342004375
sVmicrosoft office
p53
F3.525361135270863
sVuncertainty could
p54
F3.7906542128291654
sVfact may
p55
F3.7508659627707526
s.