(dp0
V7995 window xp profession includ servic pack
p1
F3.9509513161686485
sVstock secur must understood inform provid invest
p2
F3.961138161475642
sV14995 adob creativ suit premium 5 cd
p3
F3.9923365323315028
sVadob photoshop 80c includ imagereadi cs 17995
p4
F3.9509513161686485
sVaction may identifi use word project forese
p5
F3.833168280512265
sVinclud imagereadi cs 17995 macromedia studio mx
p6
F3.9509513161686485
sV27a secur act 1933 section 21b secur
p7
F3.9492635520549286
sVmain product microsoft adob macromedia corel etcand
p8
F3.888738131667076
sVadob photoshop 7 adob premier 7 adob
p9
F3.876119667707864
sV17995 macromedia studio mx 2004 includ dreamweav
p10
F3.9442172839873044
sV7 adob premier 7 adob illustr 10
p11
F3.876119667707864
sVmay identifi use word project forese expect
p12
F3.8301697775160086
sVdreamweav mx flash mx firework mx 7995
p13
F3.9509513161686485
sVxp profession offic xp profession 14995 adob
p14
F3.9458965455070243
sVsecur must understood inform provid invest advic
p15
F3.8227126214079266
sVsection 21b secur exchang act 1934 statement
p16
F3.9128356832461364
sVprofession offic xp profession 14995 adob creativ
p17
F3.9923365323315028
sV80c includ imagereadi cs 17995 macromedia studio
p18
F3.9509513161686485
sVsection 27a secur act 1933 section 21b
p19
F3.9375282958365077
sVstudio mx 2004 includ dreamweav mx flash
p20
F3.8871520885114412
sVwindow xp profession offic xp profession 14995
p21
F3.9509513161686485
sV21b secur exchang act 1934 statement express
p22
F3.9923365323315028
sVillustr 10 main product microsoft adob macromedia
p23
F3.888738131667076
sVwindow xp profession includ servic pack 2
p24
F3.888738131667076
sVmx 2004 includ dreamweav mx flash mx
p25
F3.8871520885114412
sV10 main product microsoft adob macromedia corel
p26
F3.888738131667076
sVbase expect estim project time statement made
p27
F3.7720138573589344
sV8995 window xp profession offic xp profession
p28
F3.9509513161686485
sVcreativ suit premium 5 cd 12995 adob
p29
F3.9923365323315028
sVoffic xp profession 14995 adob creativ suit
p30
F3.9923365323315028
sVsuit premium 5 cd 12995 adob photoshop
p31
F3.9923365323315028
sVcs 17995 macromedia studio mx 2004 includ
p32
F3.9442172839873044
sVact 1933 section 21b secur exchang act
p33
F3.8935114104197335
sVprofession includ servic pack 2 8995 microsoft
p34
F3.9509513161686485
sV1933 section 21b secur exchang act 1934
p35
F3.9015178583134746
sVprofession 9995 adob photoshop 80c includ imagereadi
p36
F3.9509513161686485
sVstatement base expect estim project time statement
p37
F3.780524547026843
sVmx firework mx 7995 adob acrobat 60
p38
F3.9509513161686485
sVsecur act 1933 section 21b secur exchang
p39
F3.8935114104197335
sVoffer 8995 window xp profession offic xp
p40
F3.9509513161686485
sVstatement indic certain action may could might
p41
F3.883987528908478
sVpertain invest stock secur must understood inform
p42
F3.920998993885297
sVexampl 7995 window xp profession includ servic
p43
F3.9442172839873044
sV2 8995 microsoft offic 2003 profession 7995
p44
F3.987068741396644
sVsecur repres decid trade stock featur within
p45
F3.925929159993156
sVservic pack 2 8995 microsoft offic 2003
p46
F3.9509513161686485
sVinvest stock secur must understood inform provid
p47
F3.9177256685403283
sVflash mx firework mx 7995 adob acrobat
p48
F3.9442172839873044
sVphotoshop 80c includ imagereadi cs 17995 macromedia
p49
F3.9509513161686485
sVadob illustr 10all main product microsoft adob
p50
F3.9509513161686485
sVmean section 27a secur act 1933 section
p51
F3.8808329521599627
sVillustr 10all main product microsoft adob macromedia
p52
F3.9509513161686485
sVinclud servic pack 2 8995 microsoft offic
p53
F3.9509513161686485
sV7 adob illustr 10 main product microsoft
p54
F3.888738131667076
sV7 adob premier 7 adob illustr 10all
p55
F3.9509513161686485
sVindic certain action may could might occur
p56
F3.868313226815035
sV7 adob illustr 10all main product microsoft
p57
F3.9442172839873044
sVmain product microsoft adob macromedia corel etc
p58
F3.8855685569057967
sVphotoshop 7 adob premier 7 adob illustr
p59
F3.876119667707864
sVxp profession 9995 adob photoshop 80c includ
p60
F3.987068741396644
sV2004 includ dreamweav mx flash mx firework
p61
F3.8871520885114412
sVadob illustr 10 main product microsoft adob
p62
F3.888738131667076
sVpremier 7 adob illustr 10all main product
p63
F3.9442172839873044
sVadob premier 7 adob illustr 10 main
p64
F3.888738131667076
sVstatement within mean section 27a secur act
p65
F3.806500033430104
sV12995 adob photoshop 7 adob premier 7
p66
F3.9509513161686485
sVadob creativ suit premium 5 cd 12995
p67
F3.9923365323315028
sVpack 2 8995 microsoft offic 2003 profession
p68
F3.9509513161686485
sVpremier 7 adob illustr 10 main product
p69
F3.888738131667076
sVwithin mean section 27a secur act 1933
p70
F3.752432812159828
sVimagereadi cs 17995 macromedia studio mx 2004
p71
F3.9509513161686485
sVpremium 5 cd 12995 adob photoshop 7
p72
F3.9923365323315028
sVprofession 14995 adob creativ suit premium 5
p73
F3.9923365323315028
sVstatement action may identifi use word project
p74
F3.845253019727337
sVadob premier 7 adob illustr 10all main
p75
F3.9509513161686485
sVinclud dreamweav mx flash mx firework mx
p76
F3.8871520885114412
sVspecial offer 8995 window xp profession offic
p77
F3.9509513161686485
sVxp profession includ servic pack 2 8995
p78
F3.9509513161686485
sVmacromedia studio mx 2004 includ dreamweav mx
p79
F3.8808329521599627
sVmx flash mx firework mx 7995 adob
p80
F3.9509513161686485
sV9995 adob photoshop 80c includ imagereadi cs
p81
F3.9509513161686485
sVfirework mx 7995 adob acrobat 60 profession
p82
F3.9509513161686485
sV10all main product microsoft adob macromedia corel
p83
F3.9509513161686485
sVxp profession 14995 adob creativ suit premium
p84
F3.9923365323315028
s.