(dp0
Vadob photoshop 7
p1
F3.7565965933316074
sVrepres decid trade
p2
F3.7762601482403855
sVexchang act 1934
p3
F3.503583716406475
sVunderstood inform provid
p4
F3.777679594894612
sVstatement within mean
p5
F3.4981986737755872
sVmacromedia studio mx
p6
F3.5868714242233386
sVact 1933 section
p7
F3.691971149685398
sVassumpt futur event
p8
F3.7762601482403855
sVnumber risk uncertainti
p9
F3.7482862961979797
sVfutur event perform
p10
F3.7663800396406786
sVrisk uncertainti could
p11
F3.639895892531559
sVprivat secur litig
p12
F3.812365152882502
sV27a secur act
p13
F3.672603210507343
sVsecur act 1933
p14
F3.506828716549802
sVwindow xp profession
p15
F3.210785165848047
sVwish stop futur
p16
F3.75798838200443
sVkind invest advic
p17
F3.7663800396406786
sVseek advic regist
p18
F3.7734272851560817
sVproject time statement
p19
F3.7621754083586465
sVmay identifi use
p20
F3.7876725402921303
sVsecur must understood
p21
F3.7663800396406786
sVevent perform statement
p22
F3.7992166800389957
sVtime statement made
p23
F3.730514126452182
sVinform provid invest
p24
F3.803580323326769
sVadob illustr 10
p25
F3.784807208818844
sVinher conflict interest
p26
F3.7762601482403855
sVstatement base expect
p27
F3.753818813767705
sVadob photoshop 80c
p28
F3.7455314735191347
sVsecur litig reform
p29
F3.812365152882502
sVsecur repres decid
p30
F3.7819500640180643
sVproject forese expect
p31
F3.774842713559412
sVsection 27a secur
p32
F3.7157189675354347
sVlitig reform act
p33
F3.810895644903142
sV1933 section 21b
p34
F3.749666558666938
sVcould caus actual
p35
F3.7607777840920087
sVsecur exchang act
p36
F3.590398764741307
sVuse word project
p37
F3.8079630914818643
sVstatement indic certain
p38
F3.662425005591587
sVreform act 1995
p39
F3.7948719954349848
sVindic certain action
p40
F3.6523493536028453
sVexpect estim project
p41
F3.752432812159828
sVword project forese
p42
F3.777679594894612
sVsubscrib seek advic
p43
F3.7992166800389957
sVstudio mx 2004
p44
F3.5927572564006
sVstatement action may
p45
F3.7621754083586465
sVuncertainti could caus
p46
F3.7510487288938896
sVmean section 27a
p47
F3.718392765919837
sVxp profession offic
p48
F3.7891082907182345
sVforward look statement
p49
F3.7663800396406786
sVconstru kind invest
p50
F3.7720138573589344
sVbase expect estim
p51
F3.7386774370913427
sVemail messag advertis
p52
F3.071829350078413
sVwithin mean section
p53
F3.583356482115894
sVadob acrobat 60
p54
F3.7992166800389957
sVoffic 2003 profession
p55
F3.7791010592419894
sVstatement histor fact
p56
F3.796318127284984
sVaction may identifi
p57
F3.755206739042553
sVmust understood inform
p58
F3.777679594894612
sVhistor fact may
p59
F3.810895644903142
sVreader subscrib seek
p60
F3.8079630914818643
sVoffic xp profession
p61
F3.6082245486939075
sVinform provid within
p62
F3.7720138573589344
sVact 1934 statement
p63
F3.7482862961979797
sVmessag advertis andor
p64
F3.071829350078413
sVadob creativ suit
p65
F3.7077402018036296
sVestim project time
p66
F3.759382110453034
sVcertain action may
p67
F3.6561158363983224
sVdiscuss respect predict
p68
F3.7117216271028144
sVadvertis andor solicit
p69
F3.071829350078413
sVidentifi use word
p70
F3.7791010592419894
sVmicrosoft offic 2003
p71
F3.759382110453034
sVprovid invest advic
p72
F3.810895644903142
s.