(dp0
Vreform act 1995
p1
F3.9517993667593063
sVmust understand information
p2
F3.9346069662189334
sVadobe creative suite
p3
F3.8528175332104553
sVsubscriber seek advice
p4
F3.9605076946510906
sVstatement within mean
p5
F3.6583535895907753
sVmessage advertisement andor
p6
F3.2287567214027346
sVsection 27a security
p7
F3.873982344402499
sVadobe acrobat 60
p8
F3.9561440513633173
sVact 1933 section
p9
F3.8488985210097195
sVinformation provide investment
p10
F3.9590510301546264
sVadobe photoshop 80cs
p11
F3.9024588448434567
sVadobe illustrator 10
p12
F3.9417345801431654
sVreader subscriber seek
p13
F3.9678230162274635
sVunderstand information provide
p14
F3.9346069662189334
sVprivate security litigation
p15
F3.9707641948182797
sVexpectation estimate projection
p16
F3.9093601834841496
sVbase expectation estimate
p17
F3.8969718626271974
sVprojection time statement
p18
F3.919102779682968
sVinherent conflict interest
p19
F3.933187519564707
sVmicrosoft office 2003
p20
F3.9163094817773554
sVmay identify use
p21
F3.947473476812184
sVsecurity act 1933
p22
F3.66701165233389
sVrepresentative decide trade
p23
F3.9303546564804033
sVlitigation reform act
p24
F3.9678230162274635
sVadobe photoshop 7
p25
F3.913523964655929
sVrisk uncertainty could
p26
F3.7993015798703476
sV1933 section 21b
p27
F3.9065939299912595
sVestimate projection time
p28
F3.9163094817773554
sVwish stop future
p29
F3.9149157533287515
sVsecurity must understand
p30
F3.923307410965
sVprovide investment advice
p31
F3.9663556645335136
sVsecurity exchange act
p32
F3.7496846277249216
sVconstrue kind investment
p33
F3.9303546564804033
sVsecurity representative decide
p34
F3.938877435342386
sVkind investment advice
p35
F3.923307410965
sVstudio mx 2004
p36
F3.7496846277249216
sVstatement action may
p37
F3.919102779682968
sVmean section 27a
p38
F3.876659722173215
sVoffice 2003 professional
p39
F3.936028430566311
sVevent performance statement
p40
F3.9575964844436324
sVtime statement make
p41
F3.92190390196268
sVindicate certain action
p42
F3.8105306435867607
sVemail message advertisement
p43
F3.2287567214027346
sVwithin mean section
p44
F3.7402838534402156
sVsecurity litigation reform
p45
F3.9707641948182797
sVinformation provide within
p46
F3.928941228683256
sVproject foresee expect
p47
F3.933187519564707
sVmacromedia studio mx
p48
F3.74379879554766
sVseek advice register
p49
F3.933187519564707
sVidentify use word
p50
F3.938877435342386
sVadvertisement andor solicitation
p51
F3.2287567214027346
sVassumption future event
p52
F3.9346069662189334
sVnumber risk uncertainty
p53
F3.907976100218211
sVword project foresee
p54
F3.9346069662189334
sVact 1934 statement
p55
F3.9093601834841496
sVaction may identify
p56
F3.9121341103668748
sVuse word project
p57
F3.964890462806186
sVstatement indicate certain
p58
F3.823157073959573
sVcould cause actual
p59
F3.9177051554163302
sVoffice xp professional
p60
F3.7639535975261205
sVdiscussion respect prediction
p61
F3.869979670612841
sVxp professional office
p62
F3.946035662042556
sVcertain action may
p63
F3.813043207722644
sVwindow xp professional
p64
F3.4147315069330246
sVforward look statement
p65
F3.924712892573735
sVfuture event performance
p66
F3.9261203523416146
sV27a security act
p67
F3.8333742765062278
sVhistorical fact may
p68
F3.9678230162274635
sVstatement base expectation
p69
F3.9107461850920266
sVexchange act 1934
p70
F3.6605110877307965
sVuncertainty could cause
p71
F3.9107461850920266
sVstatement historical fact
p72
F3.954693724785671
s.