(dp0
V7995 window xp professional include service pack
p1
F4.1078786874929705
sV10 main product microsoft adobe macromedia corel
p2
F4.0456655029913975
sVwindow xp professional office xp professional 14995
p3
F4.1078786874929705
sVstatement indicate certain action may could might
p4
F4.042495928230118
sV9995 adobe photoshop 80cs include imageready c
p5
F4.1078786874929705
sVadobe photoshop 80cs include imageready c 17995
p6
F4.1078786874929705
sVaction may identify use word project foresee
p7
F3.9900956518365867
sVsection 27a security act 1933 section 21b
p8
F4.096123724261527
sVoffice xp professional 14995 adobe creative suite
p9
F4.149263903655824
sV8995 microsoft office 2003 professional 7995 office
p10
F4.151026018649224
sVmay identify use word project foresee expect
p11
F3.98709714884033
sVact 1933 section 21b security exchange act
p12
F4.050438781744055
sVprofessional 9995 adobe photoshop 80cs include imageready
p13
F4.1078786874929705
sV14995 adobe creative suite premium 5 cd
p14
F4.149263903655824
sV2003 professional 7995 office xp professional 9995
p15
F4.151026018649224
sVprofessional 14995 adobe creative suite premium 5
p16
F4.149263903655824
sVadobe premiere 7 adobe illustrator 10 main
p17
F4.0456655029913975
sVspecial offer 8995 window xp professional office
p18
F4.1078786874929705
sVstatement action may identify use word project
p19
F4.002180391051659
sVphotoshop 80cs include imageready c 17995 macromedia
p20
F4.1078786874929705
sV2004 include dreamweaver mx flash mx fireworks
p21
F4.044079459835762
sVdreamweaver mx flash mx fireworks mx 7995
p22
F4.1078786874929705
sVmx flash mx fireworks mx 7995 adobe
p23
F4.1078786874929705
sVmx fireworks mx 7995 adobe acrobat 60
p24
F4.1078786874929705
sV10all main product microsoft adobe macromedia corel
p25
F4.1078786874929705
sVadobe illustrator 10 main product microsoft adobe
p26
F4.0456655029913975
sVxp professional include service pack 2 8995
p27
F4.1078786874929705
sVstatement within mean section 27a security act
p28
F3.9634274047544253
sVmacromedia studio mx 2004 include dreamweaver mx
p29
F4.037760323484284
sV80cs include imageready c 17995 macromedia studio
p30
F4.1078786874929705
sVstatement base expectation estimate projection time statement
p31
F3.9374519183511647
sVpertain invest stock security must understand information
p32
F4.124914874645538
sVillustrator 10 main product microsoft adobe macromedia
p33
F4.0456655029913975
sVsecurity act 1933 section 21b security exchange
p34
F4.050438781744055
sVflash mx fireworks mx 7995 adobe acrobat
p35
F4.101144655311626
sVwithin mean section 27a security act 1933
p36
F3.9107461850920266
sVbase expectation estimate projection time statement make
p37
F3.961966484114751
sVc 17995 macromedia studio mx 2004 include
p38
F4.101144655311626
sV17995 macromedia studio mx 2004 include dreamweaver
p39
F4.101144655311626
sVprofessional 7995 office xp professional 9995 adobe
p40
F4.151026018649224
sVpremium 5 cd 12995 adobe photoshop 7
p41
F4.149263903655824
sV7 adobe premiere 7 adobe illustrator 10
p42
F4.033047039032186
sVinclude service pack 2 8995 microsoft office
p43
F4.1078786874929705
sVprofessional office xp professional 14995 adobe creative
p44
F4.149263903655824
sVpack 2 8995 microsoft office 2003 professional
p45
F4.1078786874929705
sV8995 window xp professional office xp professional
p46
F4.1078786874929705
sV7 adobe premiere 7 adobe illustrator 10all
p47
F4.1078786874929705
sVinclude imageready c 17995 macromedia studio mx
p48
F4.1078786874929705
sV27a security act 1933 section 21b security
p49
F4.10619092337925
sVservice pack 2 8995 microsoft office 2003
p50
F4.1078786874929705
sVsuite premium 5 cd 12995 adobe photoshop
p51
F4.149263903655824
sVindicate certain action may could might occur
p52
F4.026797018687015
sVxp professional 14995 adobe creative suite premium
p53
F4.149263903655824
sVprofessional include service pack 2 8995 microsoft
p54
F4.1078786874929705
sVxp professional 9995 adobe photoshop 80cs include
p55
F4.1439961127209655
sVillustrator 10all main product microsoft adobe macromedia
p56
F4.1078786874929705
sV7995 office xp professional 9995 adobe photoshop
p57
F4.151026018649224
sV7 adobe illustrator 10 main product microsoft
p58
F4.0456655029913975
sVinclude dreamweaver mx flash mx fireworks mx
p59
F4.044079459835762
sVstudio mx 2004 include dreamweaver mx flash
p60
F4.044079459835762
sVoffice xp professional 9995 adobe photoshop 80cs
p61
F4.151026018649224
sVsection 21b security exchange act 1934 statement
p62
F4.069763054570458
sV7 adobe illustrator 10all main product microsoft
p63
F4.101144655311626
sVadobe creative suite premium 5 cd 12995
p64
F4.149263903655824
sVmain product microsoft adobe macromedia corel etcand
p65
F4.0456655029913975
sVinvest stock security must understand information provide
p66
F4.121484339548749
sVpremiere 7 adobe illustrator 10 main product
p67
F4.0456655029913975
sVmean section 27a security act 1933 section
p68
F4.03933636793975
sVsecurity representative decide trade stock feature within
p69
F4.128357218836511
sVwindow xp professional include service pack 2
p70
F4.0456655029913975
sV12995 adobe photoshop 7 adobe premiere 7
p71
F4.1078786874929705
sVimageready c 17995 macromedia studio mx 2004
p72
F4.1078786874929705
sVmain product microsoft adobe macromedia corel etc
p73
F4.042495928230118
sV2 8995 microsoft office 2003 professional 7995
p74
F4.1439961127209655
sV1933 section 21b security exchange act 1934
p75
F4.058445229637797
sVcreative suite premium 5 cd 12995 adobe
p76
F4.149263903655824
sVpremiere 7 adobe illustrator 10all main product
p77
F4.101144655311626
sVmicrosoft office 2003 professional 7995 office xp
p78
F4.151026018649224
sVxp professional office xp professional 14995 adobe
p79
F4.102823916831346
sVmx 2004 include dreamweaver mx flash mx
p80
F4.044079459835762
sVadobe photoshop 7 adobe premiere 7 adobe
p81
F4.033047039032186
sVsecurity must understand information provide investment advice
p82
F3.979639992732248
sVadobe illustrator 10all main product microsoft adobe
p83
F4.1078786874929705
sVoffice 2003 professional 7995 office xp professional
p84
F4.151026018649224
sVoffer 8995 window xp professional office xp
p85
F4.1078786874929705
sVadobe premiere 7 adobe illustrator 10all main
p86
F4.1078786874929705
sVphotoshop 7 adobe premiere 7 adobe illustrator
p87
F4.033047039032186
sVfireworks mx 7995 adobe acrobat 60 professional
p88
F4.1078786874929705
s.