(dp0
S''
p1
F1.928645316004768
sVrepresent
p2
F3.426626294585174
sV199
p3
F4.418340788276571
sVcode
p4
F3.791884982215298
sVconsider
p5
F3.2365005122996378
sVlimited
p6
F3.58063453441504
sVchild
p7
F4.118065532799963
sVdollar
p8
F2.8056822611424286
sVfocus
p9
F3.944599911616452
sVmonth
p10
F2.7620896480664947
sVfour
p11
F3.9374519183511647
sVpenis
p12
F4.332289933885043
sVmanager
p13
F3.7228921107283464
sVsleep
p14
F4.386592089961991
sVlegal
p15
F3.8143018611298403
sVgo
p16
F1.8555206012432397
sVfollow
p17
F2.843122291475056
sVcontent
p18
F3.641259156231475
sVzone
p19
F4.451130611099562
sVflash
p20
F3.4172685061796138
sVtr
p21
F4.330178000681899
sVyoung
p22
F4.2491620569218105
sVsend
p23
F2.2483658533877273
sVyour20
p24
F4.255015732173272
sV0
p25
F3.5608905564253495
sVcharge
p26
F3.7663516802101333
sVprogram
p27
F3.0938237868529237
sVfriday
p28
F4.375493196893942
sVth
p29
F4.451130611099562
sVsuite
p30
F3.1268383081213336
sS'td'
p31
F4.026797018687015
sVinclude
p32
F2.179741373873997
sVworth
p33
F3.9024588448434567
sVsent
p34
F4.296979931272303
sVingredient
p35
F4.411452127281386
sVroad
p36
F4.353658268290742
sVfax
p37
F3.6317704187227737
sVwoman
p38
F3.772372167991716
sVpremium
p39
F3.662673250735292
sVrisk
p40
F3.0541789555056833
sVadvantage
p41
F3.6130588540856508
sVfar
p42
F4.317599218475039
sVreader
p43
F3.664840098820382
sV35
p44
F4.307236431439493
sVnone
p45
F3.635976523767048
sVchoice
p46
F3.9121341103668748
sVmedicine
p47
F4.305176698476482
sVasset
p48
F4.167026359995665
sVevery
p49
F2.814448176558896
sVdecide
p50
F3.2231623012174104
sVfall
p51
F4.323868831488634
sVjoin
p52
F3.637030820121954
sVticket
p53
F4.165235849221877
sVmultiple
p54
F3.8206190015311017
sVminute
p55
F3.447352425102291
sVroom
p56
F4.286827559808286
sVentire
p57
F4.012875680168407
sVschool
p58
F4.502423905487112
sVlevel
p59
F3.8942396204903242
sVharbor
p60
F4.379917982874297
sVissue
p61
F3.5066690022587106
sVlist
p62
F2.5789622009032707
sVsolution
p63
F3.318960745252131
sVtry
p64
F3.0075786347111406
sVp
p65
F2.8186274257344657
sVdreamweaver
p66
F3.841106273789554
sVassurance
p67
F4.497423895070407
sVteam
p68
F3.4534793589297936
sVsmall
p69
F3.452601780988435
sVenhance
p70
F4.052034951276878
sVenjoy
p71
F3.784522985774229
sVpoise
p72
F4.395560759944751
sVtel
p73
F3.999145487356505
sVandor
p74
F2.988095691701894
sVten
p75
F4.174220635629692
sVrequest
p76
F3.3798732058808194
sVsign
p77
F3.6058756523421587
sVpast
p78
F3.5836300433948387
sVacross
p79
F4.451130611099562
sVrate
p80
F3.3075146073145234
sVcost
p81
F3.1186389559726475
sVdesign
p82
F3.2688193035548054
sVpass
p83
F4.313441208326376
sVdownload
p84
F3.8282526263861727
sS'\x1b'
p85
F4.161664416854279
sVair
p86
F3.9856012622487476
sVclick
p87
F2.2680264228977176
sVimpact
p88
F4.404610595464669
sVeven
p89
F2.7691505776673684
sVpower
p90
F3.515971394921024
sVsection
p91
F3.4937893393950494
sVmethod
p92
F4.40916641200053
sVasia
p93
F4.366701931482771
sVavailability
p94
F4.104506003014331
sVcurrent
p95
F3.0025323666435164
sVversion
p96
F4.009808193100545
sV10all
p97
F4.096123724261527
sVcapital
p98
F4.2491620569218105
sVreply
p99
F2.951295002231651
sVnet
p100
F3.771165167241681
sS'rd'
p101
F4.18511003542896
sVever
p102
F3.069609528732329
sVpublic
p103
F3.4614124106705897
sV3d
p104
F4.404610595464669
sVbody
p105
F3.3644945134781676
sVmed
p106
F3.517842302856836
sVfull
p107
F2.78837763989774
sVexchange
p108
F3.2435927406091296
sVmen
p109
F3.3564944708110915
sVcommercial
p110
F4.025240598139357
sVbroker
p111
F4.121484339548749
sVlet
p112
F3.162947969481814
sVaddress
p113
F2.668540032097203
sVactive
p114
F4.112959138725389
sVdecision
p115
F4.357987279380327
sV100
p116
F2.6342914574744833
sVstrong
p117
F3.469408899304816
sVchange
p118
F2.6447953470857892
sVwait
p119
F3.521594652475386
sVbox
p120
F3.3509322792758174
sVpublisher
p121
F3.9856012622487476
sVgreat
p122
F2.812133896423917
sVvoice
p123
F4.087811124442161
sVchina
p124
F3.9561440513633173
sV6000
p125
F4.411452127281386
sVreceive
p126
F2.2672218097391146
sS'32'
p127
F4.315518052271215
sS'k'
p128
F3.5244181837629927
sV30
p129
F3.3113154480741795
sV36
p130
F3.6296739818962456
sVexperience
p131
F3.3352086848963607
sVexample
p132
F3.4561167230958794
sVhost
p133
F4.126634565525064
sVprior
p134
F3.3414684862448674
sVamount
p135
F3.74379879554766
sVadvertising
p136
F4.015952605672886
sVpick
p137
F4.099468208984374
sVaction
p138
F3.116756307158031
sVopinion
p139
F3.74379879554766
sVemerge
p140
F4.023686596272622
sVvia
p141
F3.2969484712766413
sVlove
p142
F3.4774698475664483
sVsecure
p143
F3.3954921012794443
sVfamily
p144
F3.6812428722618393
sVextra
p145
F4.315518052271215
sVwin
p146
F3.964890462806186
sVfireworks
p147
F4.019039027876075
sVmanage
p148
F3.9856012622487476
sVafrica
p149
F3.670277850120511
sVprivate
p150
F3.0858896591775036
sVhighly
p151
F3.8244285299477694
sVsincerely
p152
F3.4774698475664483
sVverge
p153
F4.416039291288292
sVapply
p154
F4.002180391051659
sVtuesday
p155
F4.4899704444158255
sVtotal
p156
F3.116756307158031
sVestablish
p157
F4.386592089961991
sVobligation
p158
F4.4535144024548385
sVselect
p159
F3.2572081426271273
sVuse
p160
F2.0290707924707276
sVfee
p161
F3.650838793088289
sVeye
p162
F4.270795152277237
sVwould
p163
F2.358385103793363
sVprove
p164
F4.338652627672872
sVpositive
p165
F3.74379879554766
sVcontains
p166
F4.028355865456306
sVvisit
p167
F2.2957757550882008
sVtwo
p168
F2.7942640050943504
sVnext
p169
F2.835994677550824
sVmaya
p170
F4.446380008340964
sVlive
p171
F3.3509322792758174
sVcompensate
p172
F4.197966043530494
sVcall
p173
F2.9722353647071524
sVtherefore
p174
F3.9900956518365867
sS'6'
p175
F2.904581787214395
sVtype
p176
F3.8346587981985842
sVtell
p177
F3.5234761205750917
sVtoday
p178
F2.477711179544291
sV1000
p179
F4.266826893101616
sVdoor
p180
F4.256974596658605
sVsuccessful
p181
F3.954693724785671
sVtax
p182
F3.888797430187639
sVcompany
p183
F2.2172833200846442
sVequity
p184
F4.256974596658605
sVdistribution
p185
F4.1724172086305416
sVaward
p186
F4.084505336307662
sVherein
p187
F3.4360724790372243
sValias
p188
F4.3259674681455556
sVphone
p189
F3.1715203925680058
sVaccept
p190
F4.091127877068155
sVannounce
p191
F3.481976389668339
sVsit
p192
F3.786970967412869
sV90
p193
F3.730970631293548
sVhold
p194
F3.172182863609127
sVeffort
p195
F3.5657901252665076
sVdocument
p196
F4.151026018649224
sV0rder
p197
F4.188766346632071
sVmust
p198
F2.7287892738369064
sVcustomer
p199
F2.559023168037225
sVhigh
p200
F2.752461564937519
sVaccount
p201
F2.890982987876576
sVgraphic
p202
F3.6151207104862095
sVword
p203
F2.9502328672406675
sVorganization
p204
F4.101144655311626
sVhour
p205
F2.9122173549808994
sVf
p206
F3.225256542820525
sVcar
p207
F4.288849805189053
sVwork
p208
F2.5254925872924474
sVremain
p209
F4.149263903655824
sVanywhere
p210
F4.504933317092538
sVclient
p211
F3.755605308134649
sS'v'
p212
F3.155751340449774
sVmeet
p213
F3.3831411826454354
sVmale
p214
F4.355820431295237
sVmx
p215
F3.352518322431452
sVhistory
p216
F3.886087401428774
sVcontrol
p217
F3.5677566942385486
sVclaim
p218
F3.549228616677506
sVcompare
p219
F3.6562007362296742
sVomit
p220
F4.373288124335628
sVpicture
p221
F4.176027320854641
sS'tab'
p222
F3.6746494417820075
sVstream
p223
F4.142246330997178
sVgive
p224
F2.4773803275975177
sVprocess
p225
F3.1544484086693583
sVdecember
p226
F3.9678230162274635
sV3652this
p227
F4.284809395652048
sVshare
p228
F2.7581396758471803
sVimageready
p229
F3.97223803443658
sVpromotional
p230
F4.168820082449692
sVinvolve
p231
F3.3422537238195695
sVrise
p232
F4.446380008340964
sS'o'
p233
F4.241410080117493
sVwant
p234
F2.213465064204832
sVblvd
p235
F4.276777223954784
sVhandle
p236
F4.404610595464669
sVserial
p237
F4.463106802146277
sVstory
p238
F4.40916641200053
sVoccur
p239
F3.559913516777523
sVsimple
p240
F4.3450560647080785
sVguarantee
p241
F3.084067611907559
sVpink
p242
F4.315518052271215
sVinformation
p243
F2.005889217703993
sVunited
p244
F3.3636916230295775
sVend
p245
F3.346189187379805
sVgoal
p246
F3.6171868269236813
sVturn
p247
F3.7171614360193614
sVprovide
p248
F2.469800788921869
sVprotect
p249
F4.227987059785352
sVpurpose
p250
F3.6151207104862095
sVsix
p251
F3.8780011039974163
sVfeature
p252
F3.015479353009579
sVwrite
p253
F3.3282129315303335
sVhot
p254
F3.3438260511875217
sV80cs
p255
F3.8942396204903242
sVanswer
p256
F3.880689277659217
sVensure
p257
F4.2147418330353315
sVstock
p258
F2.804763987432356
sVprofile
p259
F3.27541031972551
sVproduct
p260
F2.079108300910298
sVde
p261
F3.737947403779196
sVhuge
p262
F3.346978142055837
sVmay
p263
F2.131547941736945
sVwatch
p264
F2.8959980435230035
sVadvice
p265
F3.257929903755537
sVinvitation
p266
F4.434601309148351
sVimagine
p267
F4.222289038670715
sVlucky
p268
F4.434601309148351
sVmembership
p269
F4.020585818594374
sVproduce
p270
F3.7808622129245477
sV100mg
p271
F4.45590388985222
sVblood
p272
F4.201669751467978
sVdate
p273
F3.037244244230297
sVpresident
p274
F3.6328202875856106
sVlaw
p275
F4.197966043530494
sVdata
p276
F3.6945616041021205
sVgrow
p277
F3.5472981141474484
sVman
p278
F3.216213002924204
sVa
p279
F2.994732884208693
sVpurchase
p280
F3.3517249864120564
sVshort
p281
F3.6934449094020456
sVnatural
p282
F3.753232827781019
sVremember
p283
F3.5187790710752225
sVthird
p284
F3.2336776452169333
sVrolex
p285
F4.360158832893835
sVlight
p286
F4.472792107880741
sVregister
p287
F3.1499014700138153
sVanytime
p288
F4.434601309148351
sVst
p289
F4.019039027876075
sS'q'
p290
F4.002180391051659
sVinform
p291
F3.862022068939527
sVgreen
p292
F4.395560759944751
sVdeposit
p293
F3.813043207722644
sVallow
p294
F3.6079227359638835
sVenter
p295
F3.3717496843593397
sVoperate
p296
F3.4937893393950494
sVorder
p297
F2.2807172912139992
sVtalk
p298
F3.665925286121669
sVtravel
p299
F3.933187519564707
sVphotoshop
p300
F3.3007092880447684
sVhelp
p301
F2.6641444206241647
sVoffice
p302
F2.745949712102595
sVfood
p303
F4.494933233757955
sVmove
p304
F3.2407498104782957
sVsoon
p305
F3.398811606402297
sVtrade
p306
F3.1395854533191994
sVcourse
p307
F4.371087903426026
sValready
p308
F3.6349233377823893
sVnbsp
p309
F4.167026359995665
sVactivity
p310
F4.364516138262791
sVstill
p311
F3.4543577076906997
sV24
p312
F3.3758031961925226
sV1
p313
F1.9664223936963778
sS'26'
p314
F3.7426257748852967
sVposition
p315
F3.170858360104236
sV20
p316
F2.1367110604585133
sVthank
p317
F3.0512386417142876
sS'22'
p318
F4.280785245352323
sV23
p319
F3.984107609991964
sVpersonal
p320
F3.649769845899384
sS'll'
p321
F3.250019039054658
sVconduct
p322
F4.276777223954784
sVlate
p323
F3.2407498104782957
sVwindow
p324
F3.0430514614795
sVproduction
p325
F3.6540525076913846
sVchoose
p326
F3.2651763122763042
sVconstitutes
p327
F4.366701931482771
sVannual
p328
F4.404610595464669
sVpolicy
p329
F4.053633672640574
sVmail
p330
F2.4580513064969147
sVmain
p331
F3.588642585218383
sVmight
p332
F3.1622915861303844
sVgood
p333
F2.559023168037225
sVreturn
p334
F3.6286274093255746
sVfinance
p335
F4.042495928230118
sVceo
p336
F4.092790387841768
sVprefer
p337
F4.290876148334286
sVmaterial
p338
F3.2984511011611763
sVcover
p339
F4.052034951276878
sVintroduce
p340
F4.391066370356912
sVbreak
p341
F3.7205958984679963
sVmention
p342
F3.71830494672144
sVhalf
p343
F3.7298125535729203
sVanticipates
p344
F4.233717734494337
sVdiligence
p345
F4.307236431439493
sVinvestor
p346
F3.315895608752754
sVday
p347
F2.1578746133940347
sVbank
p348
F3.1293747711172424
sVeasily
p349
F4.296979931272303
sVterm
p350
F3.1319176841213547
sVerection
p351
F3.561868551613326
sVname
p352
F2.638946237019466
sV14995
p353
F3.944599911616452
sValways
p354
F3.2872360303410364
sS'l'
p355
F2.906612244764777
sVexplode
p356
F4.309300415660344
sVinstant
p357
F4.3259674681455556
sVparticipant
p358
F4.4440131433306975
sVaffiliate
p359
F3.517842302856836
sVdie
p360
F4.053633672640574
sVinherent
p361
F3.726346345596434
sVconstrue
p362
F3.8017860531980094
sVside
p363
F4.149263903655824
sVmean
p364
F2.822824214361079
sVdevelopment
p365
F3.537701111506439
sVeveryone
p366
F3.8820360792095956
sVadobe
p367
F3.1774984907435138
sVdirectly
p368
F3.8502031526363845
sVweight
p369
F3.8956048084156643
sVgeneration
p370
F4.4535144024548385
sVhouse
p371
F4.044079459835762
sVenergy
p372
F3.791884982215298
sVhard
p373
F3.5707138181282927
sVreduce
p374
F4.434601309148351
sVidea
p375
F4.507449041689785
sVjanuary
p376
F4.307236431439493
sVgroup
p377
F3.588642585218383
sVconstitute
p378
F4.448752488694595
sVcarry
p379
F4.151026018649224
sVoil
p380
F4.2035267622151915
sVtrading
p381
F3.964890462806186
sVexpect
p382
F3.076210212763681
sVyear
p383
F2.3755656211656495
sVassumption
p384
F3.6867708023143524
sV80
p385
F3.3352086848963607
sVmorning
p386
F4.3217745898855195
sVsexual
p387
F3.9856012622487476
sVevent
p388
F3.2093116642835113
sVspecial
p389
F2.4355928713992063
sVreally
p390
F3.768755527521528
sVcanada
p391
F3.6990408949061666
sVlarge
p392
F3.2010924399303793
sVnetwork
p393
F3.6562007362296742
sVsector
p394
F4.229893638055934
sVitem
p395
F3.8607019367346043
sVprofit
p396
F3.6540525076913846
sVopen
p397
F3.5967152829434945
sVinch
p398
F4.205387227868111
sVsince
p399
F3.061271183815175
sVrx
p400
F4.292906605884668
sVpublish
p401
F4.192436075521034
sVresearch
p402
F3.782080982118677
sVincrease
p403
F2.8066013788541917
sVre
p404
F3.504818862970549
sVhear
p405
F3.9205023600373914
sVhealth
p406
F3.6223708717112695
sS'7'
p407
F2.5398259912217243
sVinternet
p408
F3.1123771947486714
sVprint
p409
F4.197966043530494
sVformula
p410
F4.288849805189053
sVcause
p411
F3.0518260132436565
sVred
p412
F4.069763054570458
sVdisclose
p413
F4.342917026459329
sVexactly
p414
F4.301069916523828
sVdrink
p415
F4.319684724966061
sV1995
p416
F3.859383544981346
sVmillion
p417
F2.5866814085032295
sVdiffer
p418
F3.399643207281823
sVfree
p419
F2.2755675305445218
sVstandard
p420
F4.077926365209619
sVquick
p421
F3.6768424251170173
sVreason
p422
F3.4300509554665384
sVbase
p423
F2.8033881559839595
sV12995
p424
F3.9590510301546264
sVadvisor
p425
F3.573679712541671
sVask
p426
F3.1956502496276937
sVregion
p427
F4.425277232273228
sVestimate
p428
F3.190912508109177
sVhand
p429
F3.9346069662189334
sVgift
p430
F4.38213773961261
sVacrobat
p431
F3.3612868122513984
sVpresently
p432
F3.7943510747104914
sVcare
p433
F3.999145487356505
sVrevolutionary
p434
F4.328070518342335
sVadvance
p435
F3.9707641948182797
sVtraining
p436
F4.512499557475854
sVg
p437
F3.0672200413349473
sVcould
p438
F2.673357383846247
sVspam
p439
F4.235635280623609
sVput
p440
F3.6234109134066834
sVkeep
p441
F3.061864479590514
sVthing
p442
F3.170858360104236
sVamerican
p443
F3.978155211464669
sVplace
p444
F2.7094120879425914
sVmassive
p445
F4.379917982874297
sVw
p446
F3.0774150321865315
sVenough
p447
F3.964890462806186
sVpromotion
p448
F3.879344287543884
sVretail
p449
F3.491962854869015
sVstar
p450
F4.448752488694595
sVthink
p451
F3.3220353057063763
sVsouth
p452
F3.4543577076906997
sVfirst
p453
F2.8830108479961924
sVmajor
p454
F3.6724612571014545
sVmr
p455
F3.4956191660721254
sVsaving
p456
F4.4440131433306975
sVdont
p457
F4.420647594374486
sVrevenue
p458
F3.589648115720402
sVfeel
p459
F3.2301602304050547
sVrelate
p460
F4.282795296280347
sVpowerful
p461
F4.255015732173272
sVnumber
p462
F2.585206481982161
sVrank
p463
F4.34719968825133
sVone
p464
F1.7963807296446699
sVclear
p465
F4.328070518342335
sVdiscover
p466
F4.1078786874929705
sVlong
p467
F2.739479989298366
sVanother
p468
F3.588642585218383
sVblank
p469
F4.512499557475854
sVowner
p470
F3.837232802193757
sVforce
p471
F4.342917026459329
sVxp
p472
F3.0541789555056833
sVquality
p473
F3.1701967656374976
sVseveral
p474
F3.8820360792095956
sVsize
p475
F3.6779407228660803
sVcity
p476
F3.6583535895907753
sVlittle
p477
F3.3151307903598317
sVmanagement
p478
F3.3839598482662714
sVsheet
p479
F4.174220635629692
sVpublication
p480
F3.988595276461352
sVservice
p481
F2.1973356822749484
sVprivacy
p482
F3.8385222930236287
sVtogether
p483
F4.276777223954784
sVtop
p484
F2.9738644717739446
sVsystem
p485
F2.6269654173824106
sVleast
p486
F4.276777223954784
sVresponse
p487
F4.118065532799963
sVanyone
p488
F4.268809054305607
sVindicate
p489
F3.3282129315303335
sS'2'
p490
F1.9516481665258438
sVto20
p491
F4.097794568426345
sVstatement
p492
F3.16953560858862
sVwhite
p493
F4.340782553930697
sVhundred
p494
F3.3798732058808194
sVfinal
p495
F4.497423895070407
sVstore
p496
F3.4079974747516806
sVdiscussion
p497
F3.6901022879053555
sVattach
p498
F4.301069916523828
sVlot
p499
F3.4801713350266086
sVrelationship
p500
F4.427600113689368
sVbehind
p501
F4.260903874798494
sS'et'
p502
F4.485032162775243
sVtool
p503
F3.923307410965
sVacquire
p504
F3.696798741500477
sVserve
p505
F4.313441208326376
sVimmediate
p506
F3.9605076946510906
sVdirect
p507
F3.6901022879053555
sVforwardlooking
p508
F3.7567936624040277
sVpart
p509
F3.0143468500572794
sVunsubscribe
p510
F3.3798732058808194
sVjuly
p511
F4.165235849221877
sVbelieve
p512
F2.8374161418982013
sVnorton
p513
F4.45590388985222
sV11
p514
F3.431767694085593
sV10
p515
F2.184913162276391
sVkind
p516
F3.2805668689047556
sV12
p517
F3.339899858472241
sV15
p518
F3.208624142771383
sVtarget
p519
F3.2543262962522386
sV17
p520
F3.7603672218948927
sV16
p521
F4.086156864346134
sV19
p522
F4.222289038670715
sV18
p523
F3.7980616541070273
sVanticipate
p524
F3.3220353057063763
sVinstruction
p525
F4.058445229637797
sVsecond
p526
F3.517842302856836
sVproject
p527
F3.0378234507336024
sVmatter
p528
F3.8398134487872486
sVcompensation
p529
F3.999145487356505
sS'r'
p530
F2.8149116759878194
sVexclusive
p531
F4.190599527713732
sVfriend
p532
F3.5263049767755694
sVhistorical
p533
F3.7603672218948927
sVprofitable
p534
F4.4535144024548385
sVvideo
p535
F3.858066889096599
sVmeasure
p536
F4.338652627672872
sVacquisition
p537
F4.071390394229834
sVprospect
p538
F4.475228162678622
sVetcand
p539
F4.03933636793975
sVdelay
p540
F4.241410080117493
sVoutstanding
p541
F4.086156864346134
sVpro
p542
F3.788197209136113
sVofficial
p543
F3.97223803443658
sVmind
p544
F3.8005430449584123
sVstreet
p545
F4.119773475145119
sVsay
p546
F2.7594546004284894
sVmedium
p547
F3.61925722103799
sVneed
p548
F2.0217031136317902
sVseem
p549
F4.427600113689368
sVseek
p550
F3.2917069766858034
sVoption
p551
F3.964890462806186
sVsell
p552
F2.6261973681895086
sVoffering
p553
F4.286827559808286
sVmin
p554
F4.317599218475039
sVspeculative
p555
F3.9946103321911135
sVagency
p556
F4.280785245352323
sVable
p557
F3.5150372519292272
sVinvestment
p558
F2.836942095906864
sVnote
p559
F3.1105062868128597
sValso
p560
F2.2221408011939197
sVcontact
p561
F2.5444139646833857
sVtake
p562
F1.9518437272969766
sVsubmit
p563
F4.245278556895413
sVonline
p564
F2.4189179530222056
sVobjective
p565
F3.573679712541671
sVperformance
p566
F3.2224651941832545
sVconcern
p567
F3.7993015798703476
sVaccuracy
p568
F3.7833012385239067
sVworldwide
p569
F3.4534793589297936
sV200
p570
F4.031480867999441
sVplay
p571
F3.549228616677506
sVsure
p572
F3.784522985774229
sVpain
p573
F3.7980616541070273
sVshall
p574
F3.4658470077384553
sVtrack
p575
F4.101144655311626
sVquote
p576
F4.126634565525064
sVprice
p577
F1.703554493118216
sVreach
p578
F3.8320914026933384
sV75
p579
F4.005224533432886
sVregular
p580
F4.056838803589523
sVshareholder
p581
F4.1439961127209655
sVplan
p582
F3.069011621390152
sVletter
p583
F3.71830494672144
sV70
p584
F3.2608221689676835
sVnothing
p585
F3.4937893393950494
sVloan
p586
F4.301069916523828
sVamerica
p587
F3.591662215092103
sVextremely
p588
F4.311368668724403
sVenroncom
p589
F3.7103276964407965
sVvolume
p590
F4.303121199294386
sVunderstands
p591
F3.97223803443658
sVmortgage
p592
F4.507449041689785
sVmobile
p593
F3.510379581655246
sVmedical
p594
F3.7663516802101333
sVlater
p595
F4.053633672640574
sS'm'
p596
F2.9657453473354405
sVsale
p597
F2.7861228475106508
sVface
p598
F4.336527228360558
sVse
p599
F4.192436075521034
sVenterprise
p600
F4.39781555233184
sVphoto
p601
F4.362335112316431
sVprofessional
p602
F2.5529397712121877
sVpease
p603
F4.429928403448959
sVmailing
p604
F3.452601780988435
sVmicrosoft
p605
F3.0389828711533373
sVfact
p606
F3.0913758052142835
sVreserve
p607
F3.589648115720402
sVshop
p608
F3.6296739818962456
sVselection
p609
F4.4440131433306975
sVshow
p610
F3.141511617638639
sVtext
p611
F3.9946103321911135
sVcheap
p612
F3.3097933777651107
sVbring
p613
F3.2673605140911453
sVparticipate
p614
F4.494933233757955
sVaggressive
p615
F4.138755926057409
sVfont
p616
F4.123198136026484
sVfind
p617
F2.493049926423993
sVstaff
p618
F4.2628743187857925
sVlitigation
p619
F3.9431662196146036
sVaccess
p620
F3.09627777581449
sVcopy
p621
F3.9707641948182797
sVknowledge
p622
F4.436945976107605
sVcopyright
p623
F4.294941194582456
sVtitle
p624
F3.4215111939184037
sVdaily
p625
F4.465519348551662
sVwinner
p626
F4.34719968825133
sVblue
p627
F4.45590388985222
sV3
p628
F2.293571290155774
sVjan
p629
F4.439296153452559
sVviagra
p630
F2.78837763989774
sVrich
p631
F4.375493196893942
sVfactor
p632
F3.841106273789554
sS'8'
p633
F3.2189869298069294
sS'52'
p634
F4.4068859093018045
sVlocal
p635
F4.18511003542896
sVhope
p636
F3.725193607716626
sVyahoocom
p637
F3.4147315069330246
sVdo
p638
F3.891514823164139
sVexecutive
p639
F4.319684724966061
sVhit
p640
F4.336527228360558
sV400
p641
F4.411452127281386
sVget
p642
F1.5805297349717256
sVexpress
p643
F3.290214439095297
sVstop
p644
F2.6802219373516976
sVexpectation
p645
F3.647635373370751
sV095
p646
F3.982616185405294
sV120
p647
F4.077926365209619
sVb
p648
F2.5782301364489077
sVrest
p649
F4.467937729415943
sVnew
p650
F1.987885458092741
sVreport
p651
F2.736475050355546
sVdr
p652
F4.20911857548097
sV14
p653
F3.92190390196268
sVearn
p654
F3.571701472529565
sVresource
p655
F4.220396890518677
sVgirl
p656
F4.044079459835762
sS'h'
p657
F3.279828589063175
sVboard
p658
F4.112959138725389
sVremove
p659
F2.9117064992865203
sVgather
p660
F4.118065532799963
sVawesome
p661
F4.377703142544744
sVbook
p662
F3.8244285299477694
sVbad
p663
F4.227987059785352
sVpaper
p664
F4.502423905487112
sV21b
p665
F3.883384697080889
sVcommon
p666
F4.282795296280347
sVthough
p667
F4.299022832902104
sVcontain
p668
F3.255766181310226
sVrelease
p669
F3.142797791449383
sS'x'
p670
F3.3352086848963607
sVrequire
p671
F2.8785542919696194
sVview
p672
F3.1583623079904948
sVeurope
p673
F3.8901552036480997
sVrequirement
p674
F4.0221350055812035
sVset
p675
F3.2894690048453485
sVreference
p676
F3.733290817949245
sV27a
p677
F3.818087354609322
sVnational
p678
F3.8607019367346043
sVaccord
p679
F4.050438781744055
sVsex
p680
F3.5726901033565044
sVedition
p681
F4.066516298471588
sVsee
p682
F2.2162636921604673
sVcomputer
p683
F3.3693254407478332
sVsec
p684
F4.064896864919285
sVresult
p685
F2.5175409464322893
sVclose
p686
F3.7993015798703476
sVmaterially
p687
F3.6605110877307965
sS'best'
p688
F2.061276237867852
sVsubject
p689
F2.736903774906593
sVerror
p690
F3.97223803443658
sVreceipt
p691
F4.276777223954784
sVexpert
p692
F4.101144655311626
sVreform
p693
F3.8847351361787603
sVfederal
p694
F3.9052136675223013
sVmovie
p695
F4.323868831488634
sVreview
p696
F3.346978142055837
sVcurrently
p697
F3.439529699421082
sVplease
p698
F1.68466176765134
sVstate
p699
F2.6912222519840157
sVfuture
p700
F2.4704576033953995
sVvarious
p701
F4.0488451559087775
sVneither
p702
F4.251109477206207
sVnumerous
p703
F4.416039291288292
sVemail
p704
F1.5354212041461013
sVwide
p705
F3.6444421827915963
sVavailable
p706
F2.708161306040939
sVperfect
p707
F3.687880064768638
sVnotice
p708
F3.035508634885151
sVnever
p709
F3.16953560858862
sVrecently
p710
F4.0456655029913975
sVability
p711
F3.6615915848645506
sVextend
p712
F4.512499557475854
sV25
p713
F3.3938364717621834
sVwo
p714
F4.165235849221877
sVfiling
p715
F4.154559591230535
sVscreen
p716
F4.243342447868547
sVattention
p717
F3.879344287543884
sVdeliver
p718
F3.791884982215298
sVhowever
p719
F4.168820082449692
sVwi
p720
F3.999145487356505
sVltd
p721
F4.509971111122495
sVprediction
p722
F3.809276724927167
sVle
p723
F4.386592089961991
sVwindows
p724
F4.393311040210736
sVkey
p725
F3.777214792467504
sVnews
p726
F2.9193968729995357
sVcome
p727
F2.5691242640237286
sVvalid
p728
F4.056838803589523
sV21
p729
F4.019039027876075
sVc
p730
F2.5532965954800235
sVlast
p731
F2.8186274257344657
sS'img'
p732
F4.336527228360558
sVlicense
p733
F4.040914900232799
sVmany
p734
F2.394263391458265
sVpertain
p735
F3.879344287543884
sVuncertainty
p736
F3.4403958753089308
sVdrug
p737
F3.4738791794357198
sVbeliefs
p738
F3.9575964844436324
sVetc
p739
F3.2710114856530264
sVs
p740
F1.5754160110033708
sVagent
p741
F4.116360502548879
sVstudio
p742
F3.535792713980679
sVexpense
p743
F3.944599911616452
sVapprove
p744
F3.6746494417820075
sVfix
p745
F4.192436075521034
sVamong
p746
F3.7906542128291654
sVco
p747
F4.133543055868876
sVsupply
p748
F3.5367464574959886
sVcolor
p749
F4.280785245352323
sVeffective
p750
F3.8055243753086168
sVca
p751
F3.103057462799869
sVothers
p752
F3.649769845899384
sVbsp
p753
F4.507449041689785
sVperiod
p754
F4.384362434634721
sVce
p755
F4.384362434634721
sVcd
p756
F3.561868551613326
sV60
p757
F3.0002977288421
sValone
p758
F4.375493196893942
sVsimply
p759
F3.4291936900904196
sVaway
p760
F3.779644927320796
sVrespect
p761
F3.3220353057063763
sVtrust
p762
F4.011340760450323
sValong
p763
F4.364516138262791
sVexpensive
p764
F4.309300415660344
sVapril
p765
F4.429928403448959
sV2000
p766
F4.08946812564979
sVfinally
p767
F4.497423895070407
sV101
p768
F4.512499557475854
sVraise
p769
F4.008277970919777
sVannounces
p770
F4.512499557475854
sVagree
p771
F4.303121199294386
sVaddition
p772
F4.475228162678622
sVwest
p773
F4.2147418330353315
sVcreate
p774
F3.481976389668339
sVcard
p775
F4.009808193100545
sVmicrocap
p776
F4.197966043530494
sVdue
p777
F2.929223691151324
sVquickly
p778
F3.9503553231870727
sVsubscriber
p779
F3.591662215092103
sVpc
p780
F4.086156864346134
sVsecret
p781
F4.256974596658605
sVmuch
p782
F2.9025554440691628
sVtreat
p783
F4.13008284480398
sVinterest
p784
F2.9323470669335925
sVgetresponse
p785
F4.284809395652048
sVimprove
p786
F4.128357218836511
sV500
p787
F3.655126045099909
sVtreatment
p788
F4.104506003014331
sVwebsite
p789
F2.9401984550808264
sVfield
p790
F4.256974596658605
sVlife
p791
F2.9534226626087676
sVenable
p792
F4.138755926057409
sV8995
p793
F4.0221350055812035
sVthousand
p794
F2.7762617187448706
sVotc
p795
F4.1724172086305416
sVexcite
p796
F4.014412959487293
sVsearch
p797
F3.3782432136698883
sVantivirus
p798
F4.436945976107605
sVelse
p799
F4.342917026459329
sVfund
p800
F3.2224651941832545
sVunderstand
p801
F3.3044843019653443
sVrepresentative
p802
F3.5926707880469877
sVdemand
p803
F4.006750086741724
sVprescription
p804
F3.017180515880851
sVgeneral
p805
F3.862022068939527
sVfl
p806
F4.393311040210736
sVpresent
p807
F3.765151920018229
sVcase
p808
F3.7993015798703476
sVp0
p809
F4.268809054305607
sVfactual
p810
F4.235635280623609
sVlook
p811
F2.282893570636595
sVleave
p812
F3.3669070598835518
sVreliable
p813
F3.7906542128291654
sVbill
p814
F3.954693724785671
sVcash
p815
F3.399643207281823
sVvalue
p816
F3.2688193035548054
sVn
p817
F2.9614419517753876
sVnear
p818
F3.7639535975261205
sV1451
p819
F4.284809395652048
sV7995
p820
F3.9417345801431654
sVcountry
p821
F2.979314076541509
sVfun
p822
F4.512499557475854
sVproperty
p823
F3.6572765835631373
sVstudy
p824
F4.416039291288292
sVpack
p825
F3.5187790710752225
sVgenerate
p826
F4.073020386440764
sVcompliance
p827
F3.726346345596434
sVcongratulation
p828
F4.451130611099562
sVve
p829
F3.3815058593047045
sValmost
p830
F4.207251161306174
sVvi
p831
F4.009808193100545
sVsite
p832
F2.346996456829354
sVsomeone
p833
F4.40234044693013
sVcontract
p834
F3.9024588448434567
sVready
p835
F3.5677566942385486
sVpartner
p836
F3.4928756801263745
sVforeign
p837
F4.156331070878917
sVtechnology
p838
F3.104295086720219
sVid
p839
F4.034615666804813
sVdifferent
p840
F4.2035267622151915
sVdevelop
p841
F3.3493487476701733
sVcredit
p842
F3.3839598482662714
sVgeneric
p843
F3.6317704187227737
sVpay
p844
F2.6273496633045252
sVmake
p845
F1.838089047968398
sVformat
p846
F4.1439961127209655
sVverify
p847
F4.373288124335628
sVdealer
p848
F4.03933636793975
sVmember
p849
F3.3151307903598317
sVvanessa
p850
F4.229893638055934
sVconsumer
p851
F4.047254065676535
sVhtml
p852
F4.124914874645538
sV6995
p853
F4.2394814392110876
sS'9'
p854
F3.2322691942798754
sVparty
p855
F3.092599046957028
sVadvise
p856
F3.5396131579780645
sVfill
p857
F3.867320094577082
sVconfidential
p858
F4.077926365209619
sVconflict
p859
F3.7699596215863322
sVweek
p860
F2.8242270670578282
sVindependent
p861
F4.253060697337468
sVsafe
p862
F3.3037281582620204
sVhttp
p863
F0.9510939307698456
sVpremiere
p864
F3.491962854869015
sVassist
p865
F3.9177051554163302
sVupon
p866
F3.6286274093255746
sVeffect
p867
F3.3782432136698883
sValert
p868
F3.8820360792095956
sVdirector
p869
F3.5967152829434945
sVwaterfall
p870
F4.268809054305607
sVuser
p871
F3.5463342586511417
sVadvertisement
p872
F2.815375390348088
sVcompleteness
p873
F4.26484865308951
sVopportunity
p874
F3.279828589063175
sVexpand
p875
F4.002180391051659
sVrecent
p876
F3.733290817949245
sVtransaction
p877
F3.533887951500025
sVcenter
p878
F3.5396131579780645
sVdatabase
p879
F3.973714049464701
sVlos
p880
F4.497423895070407
sVwhole
p881
F4.364516138262791
sVmiss
p882
F3.946035662042556
sVwell
p883
F2.7625294985244326
sVdouble
p884
F3.8398134487872486
sVperson
p885
F3.733290817949245
sVapproval
p886
F4.227987059785352
sVwithout
p887
F2.764731657529333
sVrelief
p888
F4.092790387841768
sS'na'
p889
F4.188766346632071
sVtelephone
p890
F4.087811124442161
sVcialis
p891
F3.211377069492788
sVmodel
p892
F4.451130611099562
sVcorporate
p893
F3.888797430187639
sVspend
p894
F3.7544183643751206
sVpreference
p895
F4.121484339548749
sVbottom
p896
F4.280785245352323
sVprotocol
p897
F4.422959734132865
sV210
p898
F4.463106802146277
sVless
p899
F3.2175990045320817
sVmoney
p900
F2.3616208765828044
sVdistribute
p901
F4.128357218836511
sVengine
p902
F4.342917026459329
sVcompetitive
p903
F4.40234044693013
sVdose
p904
F3.7544183643751206
sVfoot
p905
F4.416039291288292
sVidentify
p906
F3.1949720536030557
sVthanks
p907
F2.967363907170851
sVimmediately
p908
F3.858066889096599
sVforesee
p909
F3.9024588448434567
sVyes
p910
F4.400075440299278
sVreliance
p911
F4.1439961127209655
sVyet
p912
F4.26484865308951
sVprojection
p913
F3.68345037867705
sVbegin
p914
F3.5796380221253012
sVweb
p915
F3.0660274353498242
sVshoud
p916
F4.45590388985222
sVdeath
p917
F4.4068859093018045
sVcampaign
p918
F3.862022068939527
sVmix
p919
F3.869979670612841
sVmark
p920
F4.427600113689368
sVla
p921
F4.037760323484284
sVpoint
p922
F3.98709714884033
sVsmith
p923
F4.068138358843456
sVpharmacy
p924
F4.296979931272303
sVsource
p925
F3.2379149396924483
sVadd
p926
F3.6048536798464657
sVpotential
p927
F3.5926707880469877
sV4
p928
F2.736475050355546
sVeasy
p929
F2.973321141143898
sVsave
p930
F2.5321093622605795
sVpill
p931
F3.32589184731613
sVmatch
p932
F4.451130611099562
sVbuild
p933
F3.6296739818962456
sVreal
p934
F3.232973171781669
sVwil
p935
F4.140499605662236
sVmarch
p936
F4.131811453704598
sVaround
p937
F3.8206190015311017
sVgovernment
p938
F3.6380862291908977
sVread
p939
F3.282784984416777
sVbig
p940
F3.2301602304050547
sVgra
p941
F4.467937729415943
sVunlimited
p942
F4.3259674681455556
sVpossible
p943
F3.3166610125405995
sVearly
p944
F4.055234954007548
sVtest
p945
F4.137015281579625
sVgame
p946
F4.154559591230535
sVboost
p947
F3.62133191057885
sVfive
p948
F3.724042197111584
sVknow
p949
F2.3348750962970097
sVpress
p950
F3.4122009277673078
sVworld
p951
F2.588897885214121
sVunique
p952
F3.953245498609306
sVd
p953
F3.7356164003927206
sVloss
p954
F3.7286558154450966
sV17995
p955
F4.08946812564979
sVnecessary
p956
F3.486503332664116
sVlike
p957
F2.17851392803436
sVsuccess
p958
F3.7639535975261205
sVachieve
p959
F4.147504888250645
sVmessage
p960
F2.086017946142995
sV50
p961
F3.1895629802390437
sVserver
p962
F4.026797018687015
sVspecific
p963
F4.126634565525064
sVbenefit
p964
F3.564808289154251
sVcontinue
p965
F3.3166610125405995
sVofficer
p966
F3.809276724927167
sVlose
p967
F3.225955599123023
sVpopular
p968
F3.4013084866008843
sVbecome
p969
F3.1861971069839385
sVsecurity
p970
F2.5476026299183503
sVsoft
p971
F3.1748371451939996
sVpage
p972
F3.704668371771895
sVyou20
p973
F4.066516298471588
sVtherein
p974
F4.39781555233184
sVright
p975
F2.5800613034136233
sVold
p976
F3.9093601834841496
sVdeal
p977
F3.3359890204802416
sVpeople
p978
F2.8307998606737197
sVsoma
p979
F4.364516138262791
sVback
p980
F3.007016679090845
sVglobal
p981
F4.24721842171324
sVmacromedia
p982
F3.4543577076906997
sVgrowth
p983
F3.3749911782835107
sVlearn
p984
F3.3979806965082093
sVexamples
p985
F4.190599527713732
sVtable
p986
F4.09445566716083
sVdear
p987
F2.992515588400045
sVhome
p988
F3.0217311494448476
sVnewsletter
p989
F3.219681615489608
sV9995
p990
F3.940304987333571
sVfor20
p991
F4.416039291288292
sVcompetitor
p992
F3.92190390196268
sVlead
p993
F3.559913516777523
sVconfirm
p994
F4.047254065676535
sVnotification
p995
F4.07465303986465
sVavoid
p996
F4.08946812564979
sS'normal'
p997
F3.7579834305396167
sVper
p998
F2.6510723390568116
sVcreative
p999
F3.2521703485971702
sVquark
p1000
F4.504933317092538
sVeverything
p1001
F3.947473476812184
sVmarket
p1002
F2.897507477771858
sVprovider
p1003
F3.946035662042556
sVleader
p1004
F4.309300415660344
sVthe20
p1005
F4.507449041689785
sVeither
p1006
F4.112959138725389
sVlocate
p1007
F4.154559591230535
sVpr
p1008
F4.465519348551662
sVwelcome
p1009
F4.290876148334286
sVrun
p1010
F3.7171614360193614
sVbusiness
p1011
F2.293846582655792
sV300
p1012
F4.14574896154838
sVmarketing
p1013
F2.96466776102427
sVnight
p1014
F3.9915982817211217
sVagreement
p1015
F3.879344287543884
sV1933
p1016
F3.643380047800613
sVdiscount
p1017
F3.5786425018837997
sVstep
p1018
F4.052034951276878
sVcorp
p1019
F4.432262126795179
sS'br'
p1020
F3.7194497665373736
sV1934
p1021
F3.6444421827915963
sVsuper
p1022
F3.9961197664399677
sVvalium
p1023
F4.303121199294386
sVmanufacturer
p1024
F3.85675196451529
sVactual
p1025
F3.449973658582165
sVusa
p1026
F3.837232802193757
sVanything
p1027
F4.14574896154838
sVpackage
p1028
F3.6286274093255746
sVgod
p1029
F4.404610595464669
sVindustry
p1030
F3.3059983067965595
sVbasis
p1031
F4.342917026459329
sVlocation
p1032
F4.251109477206207
sVshipping
p1033
F3.7544183643751206
sVrange
p1034
F3.6007762022298095
sVplus
p1035
F4.061665844337838
sVstand
p1036
F3.733290817949245
sVact
p1037
F2.6641444206241647
sVtongue
p1038
F4.4535144024548385
sVdoctor
p1039
F3.713738728741859
sVautomatically
p1040
F4.309300415660344
sVsoftware
p1041
F2.531760017278861
sVwire
p1042
F4.371087903426026
sVacceptance
p1043
F4.068138358843456
sVsignificant
p1044
F4.3217745898855195
sVcommunication
p1045
F3.854127291092519
sVimage
p1046
F4.006750086741724
sVwithin
p1047
F2.658181373735918
sVthree
p1048
F3.161635633335464
sVdevice
p1049
F4.395560759944751
sVdvd
p1050
F4.393311040210736
sVtrademark
p1051
F4.375493196893942
sVfinancial
p1052
F3.3782432136698883
sVstrategy
p1053
F3.973714049464701
sVbankruptcy
p1054
F4.355820431295237
sVadditional
p1055
F3.35410688511659
sVarea
p1056
F3.2894690048453485
sVtransfer
p1057
F3.8105306435867607
sVsupport
p1058
F3.1801669379573476
sVquestion
p1059
F3.5085225709080334
sVhey
p1060
F4.309300415660344
sVfast
p1061
F3.2093116642835113
sVpayment
p1062
F3.788197209136113
sVfully
p1063
F4.299022832902104
sVstart
p1064
F2.734334180344962
sVcamera
p1065
F4.446380008340964
sVlow
p1066
F2.610958978084576
sVway
p1067
F2.376163349814647
sVed
p1068
F4.502423905487112
sVforward
p1069
F2.9886471116221247
sVmusic
p1070
F4.009808193100545
sVhappy
p1071
F3.8042767145104612
sVago
p1072
F4.323868831488634
sVhead
p1073
F3.7627567092922742
sVbuy
p1074
F2.808442152498684
sVnorth
p1075
F3.92190390196268
sVcomplete
p1076
F2.9975114355934167
sVform
p1077
F3.0648362499796713
sVoffer
p1078
F1.9185682272127413
sVsomething
p1079
F4.313441208326376
sVbrand
p1080
F3.3612868122513984
sVregard
p1081
F2.4648883834315636
sVheart
p1082
F4.475228162678622
sVdelivery
p1083
F3.774790548855998
sVhi
p1084
F3.366102230866265
sVlink
p1085
F2.782076988991107
sVgain
p1086
F3.688990559052665
sVline
p1087
F3.2894690048453485
sVpromote
p1088
F4.391066370356912
sVinfo
p1089
F3.537701111506439
sVillustrator
p1090
F3.7228921107283464
sVhappen
p1091
F3.938877435342386
sVwish
p1092
F2.8322139547109177
sS'j'
p1093
F3.3823231866898036
sVus
p1094
F3.312839838613276
sVrecord
p1095
F3.7275004138145404
sVeconomic
p1096
F4.3688925128625895
sVlimit
p1097
F3.4147315069330246
sVsum
p1098
F3.8067735947090484
sVexport
p1099
F4.364516138262791
sVproblem
p1100
F3.5187790710752225
sS'z'
p1101
F4.091127877068155
sVsimilar
p1102
F3.868648998427136
sVaverage
p1103
F3.879344287543884
sVassistance
p1104
F3.7943510747104914
sV150
p1105
F4.102823916831346
sVmedication
p1106
F4.005224533432886
sVand20
p1107
F4.14574896154838
sVad
p1108
F4.4825721369343805
sVcertain
p1109
F3.3352086848963607
sVpenny
p1110
F3.979639992732248
sVcondition
p1111
F3.618221488164458
sVal
p1112
F3.4257719587792583
sVproven
p1113
F3.9751922463340117
sVdrive
p1114
F3.4517249725149
sVexist
p1115
F4.005224533432886
sVrule
p1116
F4.272785202685247
sVfile
p1117
F3.3685186637778934
sVlogo
p1118
F3.940304987333571
sVaccounting
p1119
F4.311368668724403
sVship
p1120
F3.092599046957028
sVtadalafil
p1121
F4.005224533432886
sVcheck
p1122
F2.801099301700208
sVinc
p1123
F2.8835072490984683
sS'nj'
p1124
F4.147504888250645
sVsolicitation
p1125
F2.8033881559839595
sV48
p1126
F4.015952605672886
sVcorporation
p1127
F3.888797430187639
sVindividual
p1128
F3.9052136675223013
sV45
p1129
F4.119773475145119
sVpercent
p1130
F4.388826727763407
sVdetail
p1131
F2.810286320840617
sV40
p1132
F3.7012880868630713
sS'application'
p1133
F3.7035403400673963
sVinterested
p1134
F3.2065644098083723
sS'5'
p1135
F2.3343015373481055
sVdigital
p1136
F4.296979931272303
sVdepartment
p1137
F3.552131376335468
sVnt
p1138
F2.167048989670076
sVnice
p1139
F4.0221350055812035
sVcategory
p1140
F4.102823916831346
sVdraw
p1141
F3.266631916609005
sVoperation
p1142
F3.7663516802101333
sVintend
p1143
F3.3749911782835107
sVmonday
p1144
F4.231803858312053
sVxanax
p1145
F4.08946812564979
sVgas
p1146
F4.20911857548097
sVsymbol
p1147
F3.8449948075292464
sV2005
p1148
F2.5989332788566233
sVjune
p1149
F3.721743345524473
sVupdate
p1150
F3.687880064768638
sVstay
p1151
F4.186936519954995
sVchance
p1152
F3.9946103321911135
sVimportant
p1153
F3.6812428722618393
sVintent
p1154
F4.241410080117493
sVpatch
p1155
F4.45590388985222
sVaware
p1156
F3.60179401402251
sV13
p1157
F4.2628743187857925
sVbillion
p1158
F4.2241847738356135
sS'99'
p1159
F4.357987279380327
sVfirm
p1160
F4.222289038670715
sVe
p1161
F2.416424963261117
sVlonger
p1162
F4.233717734494337
sVcorel
p1163
F3.2386229043237886
sVwife
p1164
F4.1998161828186555
sVinvest
p1165
F3.1067749392000015
sVage
p1166
F3.9317700848837336
sVentertainment
p1167
F3.999145487356505
sVwebsites
p1168
F4.101144655311626
sVoriginal
p1169
F3.869979670612841
sV2002
p1170
F3.7508659627707526
sV2003
p1171
F3.167554756174659
sVdiscreet
p1172
F3.936028430566311
sV2001
p1173
F3.9038353075521797
sVu
p1174
F1.627628130772735
sV2004
p1175
F2.8312710032030473
sVtime
p1176
F1.653123639491324
sVinternational
p1177
F3.1230456360655947
sVhello
p1178
F3.092599046957028
s.