(dp0
Vinform provid
p1
F3.535402088993858
sVmacromedia studio
p2
F3.5868714242233386
sVflash mx
p3
F3.4592258637760773
sVprivat secur
p4
F3.6288188561926513
sVinvest advic
p5
F3.255273556442986
sVunit state
p6
F3.330483814329974
sVadob premier
p7
F3.4875148114672747
sVwindow xp
p8
F3.021237563962353
sVemail address
p9
F3.227851813325352
sVsecur exchang
p10
F3.578689029068399
sVcurrent price
p11
F3.31516129733761
sVandor solicit
p12
F3.071829350078413
sVstatement within
p13
F3.4928424745750624
sVcreativ suit
p14
F3.611828156197206
sVadvertis andor
p15
F3.071829350078413
sVgo http
p16
F3.1837564934601277
sVactual result
p17
F3.527628590660478
sVperform statement
p18
F3.6288188561926513
sVspecial offer
p19
F3.0516967714470615
sVrisk uncertainti
p20
F3.298309457302118
sVadob acrobat
p21
F3.3750594389186785
sVcaus actual
p22
F3.639895892531559
sVlook statement
p23
F3.571728444120775
sVwould like
p24
F3.0981186082983103
sVmay identifi
p25
F3.6312698378117916
sVpack 2
p26
F3.630043596088547
sVact 1933
p27
F3.4981986737755872
sVemail messag
p28
F2.966118264741273
sVwithin mean
p29
F3.332301996649033
sVmicrosoft offic
p30
F3.3684337639465416
sVstatement made
p31
F3.4992733649053527
sVmean section
p32
F3.570573042490219
sVcould caus
p33
F3.543236488326469
sVindic certain
p34
F3.646103237105893
sVsecur act
p35
F3.4960527502053105
sVuncertainti could
p36
F3.6312698378117916
sVvisit us
p37
F3.4896424718443915
sVact 1934
p38
F3.4960527502053105
sVbest regard
p39
F3.0606716332077597
sVoffic xp
p40
F3.482215382000776
sVcompani s
p41
F3.310698996314211
sVxp profession
p42
F3.1251176944497447
sVthird parti
p43
F3.224578487980383
sVexchang act
p44
F3.4981986737755872
sVadob photoshop
p45
F3.1932128287021633
sVaction may
p46
F3.593938591446431
sVfact may
p47
F3.593938591446431
sVpleas repli
p48
F3.466483542082362
sVexpect estim
p49
F3.5728851822485987
sVevent differ
p50
F3.6263738671995847
sVmx 2004
p51
F3.408862753942186
sVpleas visit
p52
F3.565964739404025
sVstudio mx
p53
F3.562522395213052
sVdiffer materi
p54
F3.511171828696967
sVmessag advertis
p55
F3.071829350078413
s.