(dp0
Vadobe photoshop 7 adobe premiere
p1
F4.033047039032186
sVidentify use word project foresee
p2
F3.976672631504446
sVstudio mx 2004 include dreamweaver
p3
F4.036186759036854
sVadobe illustrator 10all main product
p4
F4.101144655311626
sVexchange act 1934 statement express
p5
F3.9900956518365867
sVphotoshop 80cs include imageready c
p6
F4.0456655029913975
sVstatement base expectation estimate projection
p7
F3.928941228683256
sV17995 macromedia studio mx 2004
p8
F4.101144655311626
sVwithin mean section 27a security
p9
F3.891514823164139
sVadobe photoshop 80cs include imageready
p10
F4.0456655029913975
sVmx 2004 include dreamweaver mx
p11
F4.036186759036854
sVstatement action may identify use
p12
F3.9678230162274635
sVmay identify use word project
p13
F3.982616185405294
sVsecurity act 1933 section 21b
p14
F3.919102779682968
sVcause actual result event differ
p15
F4.092790387841768
sVsecurity litigation reform act 1995
p16
F3.9946103321911135
sV27a security act 1933 section
p17
F4.029917146023259
sVmx flash mx fireworks mx
p18
F4.044079459835762
sVdecide trade stock feature within
p19
F4.101144655311626
sVmust understand information provide investment
p20
F3.97223803443658
sVemail message advertisement andor solicitation
p21
F3.2287567214027346
sVstatement within mean section 27a
p22
F3.961966484114751
sVdreamweaver mx flash mx fireworks
p23
F4.044079459835762
sVoffice xp professional 14995 adobe
p24
F4.102823916831346
sVprofessional office xp professional 14995
p25
F4.101144655311626
sVmx fireworks mx 7995 adobe
p26
F4.101144655311626
sVsecurity exchange act 1934 statement
p27
F4.026797018687015
sVprofessional 9995 adobe photoshop 80cs
p28
F4.101144655311626
sV1933 section 21b security exchange
p29
F4.050438781744055
sVmicrosoft adobe macromedia corel etcand
p30
F4.0456655029913975
sV10 main product microsoft adobe
p31
F4.0456655029913975
sVc 17995 macromedia studio mx
p32
F4.101144655311626
sV7995 window xp professional include
p33
F4.101144655311626
sV7 adobe illustrator 10 main
p34
F4.0456655029913975
sVstatement indicate certain action may
p35
F3.8346587981985842
sVsection 27a security act 1933
p36
F3.8928762937624604
sVflash mx fireworks mx 7995
p37
F4.101144655311626
sV21b security exchange act 1934
p38
F4.0456655029913975
sVmacromedia studio mx 2004 include
p39
F4.037760323484284
sVaction may identify use word
p40
F3.953245498609306
sV9995 adobe photoshop 80cs include
p41
F4.101144655311626
sVphotoshop 7 adobe premiere 7
p42
F4.033047039032186
sVprofessional include service pack 2
p43
F4.0456655029913975
sVaction may could might occur
p44
F4.019039027876075
sVxp professional office xp professional
p45
F3.9915982817211217
sVassumption future event performance statement
p46
F3.9634274047544253
sVxp professional include service pack
p47
F4.0456655029913975
sVprivate security litigation reform act
p48
F3.97223803443658
sVact 1933 section 21b security
p49
F4.050438781744055
sVmicrosoft adobe macromedia corel etc
p50
F4.042495928230118
sVpremiere 7 adobe illustrator 10
p51
F4.029917146023259
sVbase expectation estimate projection time
p52
F3.92190390196268
sVestimate projection time statement make
p53
F3.9575964844436324
sVpremiere 7 adobe illustrator 10all
p54
F4.101144655311626
sVsecurity must understand information provide
p55
F3.9346069662189334
sVfireworks mx 7995 adobe acrobat
p56
F4.101144655311626
sVindicate certain action may could
p57
F4.020585818594374
sVproduct microsoft adobe macromedia corel
p58
F4.042495928230118
sVillustrator 10 main product microsoft
p59
F4.0456655029913975
sVillustrator 10all main product microsoft
p60
F4.101144655311626
sVwindow xp professional include service
p61
F4.03933636793975
sV2 8995 microsoft office 2003
p62
F4.101144655311626
sVadobe premiere 7 adobe illustrator
p63
F4.033047039032186
sVmain product microsoft adobe macromedia
p64
F4.042495928230118
sVexpectation estimate projection time statement
p65
F3.924712892573735
sVuse word project foresee expect
p66
F3.9707641948182797
sV2004 include dreamweaver mx flash
p67
F4.044079459835762
sVadobe illustrator 10 main product
p68
F4.0456655029913975
sVsection 21b security exchange act
p69
F4.047254065676535
sVmean section 27a security act
p70
F3.879344287543884
sVunderstand information provide investment advice
p71
F3.979639992732248
sVinclude dreamweaver mx flash mx
p72
F4.044079459835762
sV7 adobe illustrator 10all main
p73
F4.101144655311626
sVcertain action may could might
p74
F4.015952605672886
sV8995 microsoft office 2003 professional
p75
F4.101144655311626
sV7 adobe premiere 7 adobe
p76
F4.033047039032186
sVreader subscriber seek advice register
p77
F3.976672631504446
sVwindow xp professional office xp
p78
F4.029917146023259
s.