(dp0
Vadobe photoshop 7 adobe premiere 7 adobe illustrator 10all main
p1
F4.1078786874929705
sV14995 adobe creative suite premium 5 cd 12995 adobe photoshop
p2
F4.149263903655824
sVgetresponse marketing p0 box 1451 waterfall south africa 3652this email
p3
F4.284809395652048
sVc 17995 macromedia studio mx 2004 include dreamweaver mx flash
p4
F4.1078786874929705
sV7 adobe illustrator 10all main product microsoft adobe macromedia corel
p5
F4.1078786874929705
sV7 adobe premiere 7 adobe illustrator 10 main product microsoft
p6
F4.0456655029913975
sV9995 adobe photoshop 80cs include imageready c 17995 macromedia studio
p7
F4.1078786874929705
sVwindow xp professional office xp professional 14995 adobe creative suite
p8
F4.154559591230535
sV2004 include dreamweaver mx flash mx fireworks mx 7995 adobe
p9
F4.1078786874929705
sVsecurity act 1933 section 21b security exchange act 1934 statement
p10
F4.073020386440764
sVphotoshop 7 adobe premiere 7 adobe illustrator 10all main product
p11
F4.1078786874929705
sV17995 macromedia studio mx 2004 include dreamweaver mx flash mx
p12
F4.1078786874929705
sVexpectation estimate projection time statement make involve number risk uncertainty
p13
F4.205387227868111
sVstudio mx 2004 include dreamweaver mx flash mx fireworks mx
p14
F4.044079459835762
sVadvise reader subscriber seek advice register professional security representative decide
p15
F4.411452127281386
sVxp professional 9995 adobe photoshop 80cs include imageready c 17995
p16
F4.151026018649224
sV8995 window xp professional office xp professional 14995 adobe creative
p17
F4.154559591230535
sVbox 1451 waterfall south africa 3652this email message advertisement andor
p18
F4.284809395652048
sVdreamweaver mx flash mx fireworks mx 7995 adobe acrobat 60
p19
F4.1078786874929705
sVmicrosoft office 2003 professional 7995 office xp professional 9995 adobe
p20
F4.151026018649224
sVoffice xp professional 9995 adobe photoshop 80cs include imageready c
p21
F4.151026018649224
sVadobe premiere 7 adobe illustrator 10 main product microsoft adobe
p22
F4.0456655029913975
sVadobe photoshop 80cs include imageready c 17995 macromedia studio mx
p23
F4.1078786874929705
sVact 1933 section 21b security exchange act 1934 statement express
p24
F4.163448538647781
sVadobe illustrator 10 main product microsoft adobe macromedia corel etc
p25
F4.0456655029913975
sVsection 21b security exchange act 1934 statement express involve discussion
p26
F4.38213773961261
sVoffice 2003 professional 7995 office xp professional 9995 adobe photoshop
p27
F4.151026018649224
sVservice pack 2 8995 microsoft office 2003 professional 7995 office
p28
F4.151026018649224
sVinclude service pack 2 8995 microsoft office 2003 professional 7995
p29
F4.151026018649224
sV2 8995 microsoft office 2003 professional 7995 office xp professional
p30
F4.151026018649224
sVmarketing p0 box 1451 waterfall south africa 3652this email message
p31
F4.284809395652048
sV80cs include imageready c 17995 macromedia studio mx 2004 include
p32
F4.1078786874929705
sVreader subscriber seek advice register professional security representative decide trade
p33
F4.2241847738356135
sV7995 office xp professional 9995 adobe photoshop 80cs include imageready
p34
F4.151026018649224
sVassumption future event performance statement historical fact may forward look
p35
F4.416039291288292
sVprofessional 9995 adobe photoshop 80cs include imageready c 17995 macromedia
p36
F4.1078786874929705
sVlook statement action may identify use word project foresee expect
p37
F4.272785202685247
sVadobe creative suite premium 5 cd 12995 adobe photoshop 7
p38
F4.149263903655824
sV8995 microsoft office 2003 professional 7995 office xp professional 9995
p39
F4.151026018649224
sVmx flash mx fireworks mx 7995 adobe acrobat 60 professional
p40
F4.1078786874929705
sVwithin mean section 27a security act 1933 section 21b security
p41
F4.118065532799963
sVxp professional include service pack 2 8995 microsoft office 2003
p42
F4.1078786874929705
sVpack 2 8995 microsoft office 2003 professional 7995 office xp
p43
F4.151026018649224
sVadobe illustrator 10all main product microsoft adobe macromedia corel etcand
p44
F4.1078786874929705
sVpremium 5 cd 12995 adobe photoshop 7 adobe premiere 7
p45
F4.154559591230535
sVoffer 8995 window xp professional office xp professional 14995 adobe
p46
F4.1078786874929705
sVp0 box 1451 waterfall south africa 3652this email message advertisement
p47
F4.284809395652048
sVpremiere 7 adobe illustrator 10all main product microsoft adobe macromedia
p48
F4.1078786874929705
sVcd 12995 adobe photoshop 7 adobe premiere 7 adobe illustrator
p49
F4.154559591230535
sV7 adobe illustrator 10 main product microsoft adobe macromedia corel
p50
F4.0456655029913975
sVadobe photoshop 7 adobe premiere 7 adobe illustrator 10 main
p51
F4.0456655029913975
sVimageready c 17995 macromedia studio mx 2004 include dreamweaver mx
p52
F4.1078786874929705
sV1933 section 21b security exchange act 1934 statement express involve
p53
F4.379917982874297
sVprofessional 7995 office xp professional 9995 adobe photoshop 80cs include
p54
F4.151026018649224
sVmacromedia studio mx 2004 include dreamweaver mx flash mx fireworks
p55
F4.044079459835762
sVwindow xp professional include service pack 2 8995 microsoft office
p56
F4.1078786874929705
sV27a security act 1933 section 21b security exchange act 1934
p57
F4.114658374478349
sVflash mx fireworks mx 7995 adobe acrobat 60 professional 6995
p58
F4.388826727763407
sVmean section 27a security act 1933 section 21b security exchange
p59
F4.116360502548879
sVmx 2004 include dreamweaver mx flash mx fireworks mx 7995
p60
F4.1078786874929705
sVadobe premiere 7 adobe illustrator 10all main product microsoft adobe
p61
F4.1078786874929705
sVinclude dreamweaver mx flash mx fireworks mx 7995 adobe acrobat
p62
F4.1078786874929705
sVpertain invest stock security must understand information provide investment advice
p63
F4.167026359995665
sVbase expectation estimate projection time statement make involve number risk
p64
F4.20911857548097
sVstatement within mean section 27a security act 1933 section 21b
p65
F4.126634565525064
sV12995 adobe photoshop 7 adobe premiere 7 adobe illustrator 10
p66
F4.1078786874929705
sVoffice xp professional 14995 adobe creative suite premium 5 cd
p67
F4.149263903655824
sVsection 27a security act 1933 section 21b security exchange act
p68
F4.1095693049708775
sV12995 adobe photoshop 7 adobe premiere 7 adobe illustrator 10all
p69
F4.1078786874929705
sVprojection time statement make involve number risk uncertainty could cause
p70
F4.377703142544744
sVprofessional office xp professional 14995 adobe creative suite premium 5
p71
F4.149263903655824
sVsecurity exchange act 1934 statement express involve discussion respect prediction
p72
F4.355820431295237
sVsuite premium 5 cd 12995 adobe photoshop 7 adobe premiere
p73
F4.154559591230535
sV1451 waterfall south africa 3652this email message advertisement andor solicitation
p74
F4.284809395652048
sVlook statement within mean section 27a security act 1933 section
p75
F4.349347916789619
sVstatement base expectation estimate projection time statement make involve number
p76
F4.220396890518677
sVxp professional office xp professional 14995 adobe creative suite premium
p77
F4.149263903655824
sVprofessional 14995 adobe creative suite premium 5 cd 12995 adobe
p78
F4.149263903655824
sVspecial offer 8995 window xp professional office xp professional 14995
p79
F4.1078786874929705
sV7 adobe premiere 7 adobe illustrator 10all main product microsoft
p80
F4.1078786874929705
sV21b security exchange act 1934 statement express involve discussion respect
p81
F4.379917982874297
sV5 cd 12995 adobe photoshop 7 adobe premiere 7 adobe
p82
F4.154559591230535
sVprofessional include service pack 2 8995 microsoft office 2003 professional
p83
F4.1078786874929705
sVestimate projection time statement make involve number risk uncertainty could
p84
F4.377703142544744
sVcreative suite premium 5 cd 12995 adobe photoshop 7 adobe
p85
F4.154559591230535
sV7995 window xp professional include service pack 2 8995 microsoft
p86
F4.1078786874929705
sVphotoshop 80cs include imageready c 17995 macromedia studio mx 2004
p87
F4.1078786874929705
sVxp professional 14995 adobe creative suite premium 5 cd 12995
p88
F4.149263903655824
sVpremiere 7 adobe illustrator 10 main product microsoft adobe macromedia
p89
F4.0456655029913975
sVphotoshop 7 adobe premiere 7 adobe illustrator 10 main product
p90
F4.0456655029913975
sVinclude imageready c 17995 macromedia studio mx 2004 include dreamweaver
p91
F4.1078786874929705
sVinvolve number risk uncertainty could cause actual result event differ
p92
F4.413743079027942
sV2003 professional 7995 office xp professional 9995 adobe photoshop 80cs
p93
F4.151026018649224
s.