(dp0
S''
p1
F1.928645316004768
sVlimited
p2
F3.58063453441504
sVcode
p3
F3.791884982215298
sVconsider
p4
F3.2365005122996378
sVrepresent
p5
F3.426626294585174
sVcontrol
p6
F3.5677566942385486
sVglobal
p7
F4.24721842171324
sVconcern
p8
F3.7993015798703476
sVfocus
p9
F3.944599911616452
sVmonth
p10
F2.7620896480664947
sVfour
p11
F3.9374519183511647
sVpenis
p12
F4.332289933885043
sVmanager
p13
F3.7228921107283464
sVselection
p14
F4.4440131433306975
sVsleep
p15
F4.386592089961991
sVlegal
p16
F3.8143018611298403
sVgo
p17
F1.8555206012432397
sVfollow
p18
F2.843122291475056
sVincrease
p19
F2.8066013788541917
sVzone
p20
F4.451130611099562
sVeverything
p21
F3.947473476812184
sVflash
p22
F3.4172685061796138
sVtr
p23
F4.330178000681899
sVyoung
p24
F4.2491620569218105
sVsend
p25
F2.2483658533877273
sV0
p26
F3.5608905564253495
sVcharge
p27
F3.7663516802101333
sVprogram
p28
F3.0938237868529237
sVindicate
p29
F3.3282129315303335
sVth
p30
F4.451130611099562
sVsuite
p31
F3.1268383081213336
sS'td'
p32
F4.026797018687015
sVinclude
p33
F2.179741373873997
sVworth
p34
F3.9024588448434567
sVsent
p35
F4.296979931272303
sVingredient
p36
F4.411452127281386
sVpay
p37
F2.6273496633045252
sVfax
p38
F3.6317704187227737
sVwoman
p39
F3.772372167991716
sVpremium
p40
F3.662673250735292
sVrisk
p41
F3.0541789555056833
sVconfidential
p42
F4.077926365209619
sVfar
p43
F4.317599218475039
sVdollar
p44
F2.8056822611424286
sVrise
p45
F4.446380008340964
sVhard
p46
F3.5707138181282927
sVnone
p47
F3.635976523767048
sVchoice
p48
F3.9121341103668748
sVmedicine
p49
F4.305176698476482
sVasset
p50
F4.167026359995665
sVevery
p51
F2.814448176558896
sVdecide
p52
F3.2231623012174104
sVfall
p53
F4.323868831488634
sVjoin
p54
F3.637030820121954
sVticket
p55
F4.165235849221877
sVmultiple
p56
F3.8206190015311017
sVminute
p57
F3.447352425102291
sVentire
p58
F4.012875680168407
sVschool
p59
F4.502423905487112
sVlevel
p60
F3.8942396204903242
sVharbor
p61
F4.379917982874297
sVdie
p62
F4.053633672640574
sVlist
p63
F2.5789622009032707
sVsolution
p64
F3.318960745252131
sVexpectation
p65
F3.647635373370751
sVleave
p66
F3.3669070598835518
sVitem
p67
F3.8607019367346043
sVred
p68
F4.069763054570458
sVteam
p69
F3.4534793589297936
sVquick
p70
F3.6768424251170173
sVenhance
p71
F4.052034951276878
sVenjoy
p72
F3.784522985774229
sV199
p73
F4.418340788276571
sVandor
p74
F2.988095691701894
sVten
p75
F4.174220635629692
sVdirect
p76
F3.6901022879053555
sVsign
p77
F3.6058756523421587
sVpast
p78
F3.5836300433948387
sVsecond
p79
F3.517842302856836
sVstreet
p80
F4.119773475145119
sVvideo
p81
F3.858066889096599
sVpass
p82
F4.313441208326376
sVdownload
p83
F3.8282526263861727
sS'\x1b'
p84
F4.161664416854279
sVn
p85
F2.9614419517753876
sVclick
p86
F2.2680264228977176
sVeven
p87
F2.7691505776673684
sVmaterial
p88
F3.2984511011611763
sVpower
p89
F3.515971394921024
sVrate
p90
F3.3075146073145234
sVdealer
p91
F4.03933636793975
sVsection
p92
F3.4937893393950494
sV4
p93
F2.736475050355546
sVasia
p94
F4.366701931482771
sVfind
p95
F2.493049926423993
sVcurrent
p96
F3.0025323666435164
sVversion
p97
F4.009808193100545
sV10all
p98
F4.096123724261527
sVcapital
p99
F4.2491620569218105
sVnew
p100
F1.987885458092741
sVnet
p101
F3.771165167241681
sS'rd'
p102
F4.18511003542896
sVever
p103
F3.069609528732329
sVpublic
p104
F3.4614124106705897
sV3652this
p105
F4.284809395652048
sV3d
p106
F4.404610595464669
sVbody
p107
F3.3644945134781676
sV27a
p108
F3.818087354609322
sVagreement
p109
F3.879344287543884
sVfull
p110
F2.78837763989774
sVexchange
p111
F3.2435927406091296
sVmarketing
p112
F2.96466776102427
sVnever
p113
F3.16953560858862
sVcommercial
p114
F4.025240598139357
sVpoise
p115
F4.395560759944751
sVlet
p116
F3.162947969481814
sVaddress
p117
F2.668540032097203
sValone
p118
F4.375493196893942
sValong
p119
F4.364516138262791
sVstrong
p120
F3.469408899304816
sVchange
p121
F2.6447953470857892
sVwait
p122
F3.521594652475386
sVbox
p123
F3.3509322792758174
sVpublisher
p124
F3.9856012622487476
sVgreat
p125
F2.812133896423917
sVvoice
p126
F4.087811124442161
sVchina
p127
F3.9561440513633173
sV6000
p128
F4.411452127281386
sVreceive
p129
F2.2672218097391146
sS'32'
p130
F4.315518052271215
sS'k'
p131
F3.5244181837629927
sVcompliance
p132
F3.726346345596434
sV36
p133
F3.6296739818962456
sVexperience
p134
F3.3352086848963607
sVmx
p135
F3.352518322431452
sVengine
p136
F4.342917026459329
sVprior
p137
F3.3414684862448674
sVamount
p138
F3.74379879554766
sVadvertising
p139
F4.015952605672886
sVpick
p140
F4.099468208984374
sVaction
p141
F3.116756307158031
sVopinion
p142
F3.74379879554766
sVemerge
p143
F4.023686596272622
sVwinner
p144
F4.34719968825133
sVforesee
p145
F3.9024588448434567
sVsecure
p146
F3.3954921012794443
sVcampaign
p147
F3.862022068939527
sVextra
p148
F4.315518052271215
sVwin
p149
F3.964890462806186
sVfireworks
p150
F4.019039027876075
sVmanage
p151
F3.9856012622487476
sVprefer
p152
F4.290876148334286
sVprivate
p153
F3.0858896591775036
sVhighly
p154
F3.8244285299477694
sVput
p155
F3.6234109134066834
sVverge
p156
F4.416039291288292
sVapply
p157
F4.002180391051659
sVtotal
p158
F3.116756307158031
sVestablish
p159
F4.386592089961991
sVestimate
p160
F3.190912508109177
sVselect
p161
F3.2572081426271273
sVuse
p162
F2.0290707924707276
sVfee
p163
F3.650838793088289
sVeye
p164
F4.270795152277237
sVwould
p165
F2.358385103793363
sVprove
p166
F4.338652627672872
sVpositive
p167
F3.74379879554766
sVfill
p168
F3.867320094577082
sVcontains
p169
F4.028355865456306
sVvisit
p170
F2.2957757550882008
sVfinally
p171
F4.497423895070407
sVgenerate
p172
F4.073020386440764
sVlive
p173
F3.3509322792758174
sVcamera
p174
F4.446380008340964
sVmusic
p175
F4.009808193100545
sVtherefore
p176
F3.9900956518365867
sS'6'
p177
F2.904581787214395
sVintend
p178
F3.3749911782835107
sVtell
p179
F3.5234761205750917
sVtoday
p180
F2.477711179544291
sV1000
p181
F4.266826893101616
sVdoor
p182
F4.256974596658605
sVsuccessful
p183
F3.954693724785671
sVtax
p184
F3.888797430187639
sVcompany
p185
F2.2172833200846442
sVequity
p186
F4.256974596658605
sVaward
p187
F4.084505336307662
sVaware
p188
F3.60179401402251
sS'99'
p189
F4.357987279380327
sVphone
p190
F3.1715203925680058
sVaccept
p191
F4.091127877068155
sVloss
p192
F3.7286558154450966
sV80cs
p193
F3.8942396204903242
sV90
p194
F3.730970631293548
sVhold
p195
F3.172182863609127
sVeffort
p196
F3.5657901252665076
sVyour20
p197
F4.255015732173272
sV0rder
p198
F4.188766346632071
sVmust
p199
F2.7287892738369064
sV150
p200
F4.102823916831346
sVhigh
p201
F2.752461564937519
sVaccount
p202
F2.890982987876576
sVgraphic
p203
F3.6151207104862095
sV1995
p204
F3.859383544981346
sVroom
p205
F4.286827559808286
sVhour
p206
F2.9122173549808994
sVf
p207
F3.225256542820525
sVcar
p208
F4.288849805189053
sVwork
p209
F2.5254925872924474
sVremain
p210
F4.149263903655824
sVanywhere
p211
F4.504933317092538
sVclient
p212
F3.755605308134649
sVmr
p213
F3.4956191660721254
sVmeet
p214
F3.3831411826454354
sVmale
p215
F4.355820431295237
sVexample
p216
F3.4561167230958794
sVhistory
p217
F3.886087401428774
sValias
p218
F4.3259674681455556
sVheart
p219
F4.475228162678622
sVcompare
p220
F3.6562007362296742
sS'tab'
p221
F3.6746494417820075
sVstream
p222
F4.142246330997178
sVgive
p223
F2.4773803275975177
sVprocess
p224
F3.1544484086693583
sVdecember
p225
F3.9678230162274635
sVawesome
p226
F4.377703142544744
sVshare
p227
F2.7581396758471803
sVimageready
p228
F3.97223803443658
sVpromotional
p229
F4.168820082449692
sVinvolve
p230
F3.3422537238195695
sVsomething
p231
F4.313441208326376
sVwant
p232
F2.213465064204832
sVpartner
p233
F3.4928756801263745
sVblvd
p234
F4.276777223954784
sVhandle
p235
F4.404610595464669
sVstandard
p236
F4.077926365209619
sVstory
p237
F4.40916641200053
sVoccur
p238
F3.559913516777523
sVpresently
p239
F3.7943510747104914
sVpink
p240
F4.315518052271215
sVhuge
p241
F3.346978142055837
sVunited
p242
F3.3636916230295775
sVend
p243
F3.346189187379805
sVadvantage
p244
F3.6130588540856508
sVsit
p245
F3.786970967412869
sVprovide
p246
F2.469800788921869
sVverify
p247
F4.373288124335628
sVdiscussion
p248
F3.6901022879053555
sVsix
p249
F3.8780011039974163
sVbrand
p250
F3.3612868122513984
sVgetresponse
p251
F4.284809395652048
sVdelay
p252
F4.241410080117493
sVhot
p253
F3.3438260511875217
sVoption
p254
F3.964890462806186
sVanswer
p255
F3.880689277659217
sVensure
p256
F4.2147418330353315
sVbeliefs
p257
F3.9575964844436324
sVguarantee
p258
F3.084067611907559
sVconstrue
p259
F3.8017860531980094
sVprofile
p260
F3.27541031972551
sVproduct
p261
F2.079108300910298
sVde
p262
F3.737947403779196
sVinformation
p263
F2.005889217703993
sVmay
p264
F2.131547941736945
sVwatch
p265
F2.8959980435230035
sVadvice
p266
F3.257929903755537
sVltd
p267
F4.509971111122495
sVlong
p268
F2.739479989298366
sVlucky
p269
F4.434601309148351
sVmembership
p270
F4.020585818594374
sVproduce
p271
F3.7808622129245477
sVblood
p272
F4.201669751467978
sVdate
p273
F3.037244244230297
sVpresident
p274
F3.6328202875856106
sVlaw
p275
F4.197966043530494
sVdata
p276
F3.6945616041021205
sVresponse
p277
F4.118065532799963
sVman
p278
F3.216213002924204
sVa
p279
F2.994732884208693
sVpurchase
p280
F3.3517249864120564
sVshort
p281
F3.6934449094020456
sVnatural
p282
F3.753232827781019
sVremember
p283
F3.5187790710752225
sVeffective
p284
F3.8055243753086168
sVadvisor
p285
F3.573679712541671
sVlight
p286
F4.472792107880741
sVgoal
p287
F3.6171868269236813
sVregister
p288
F3.1499014700138153
sVanytime
p289
F4.434601309148351
sVst
p290
F4.019039027876075
sS'q'
p291
F4.002180391051659
sVinform
p292
F3.862022068939527
sVgreen
p293
F4.395560759944751
sVroad
p294
F4.353658268290742
sVallow
p295
F3.6079227359638835
sVenter
p296
F3.3717496843593397
sVoperate
p297
F3.4937893393950494
sVorder
p298
F2.2807172912139992
sVse
p299
F4.192436075521034
sVtravel
p300
F3.933187519564707
sVexclusive
p301
F4.190599527713732
sVhelp
p302
F2.6641444206241647
sVoffice
p303
F2.745949712102595
sV2005
p304
F2.5989332788566233
sVmove
p305
F3.2407498104782957
sVsoon
p306
F3.398811606402297
sVfeature
p307
F3.015479353009579
sVcourse
p308
F4.371087903426026
sVpaper
p309
F4.502423905487112
sVnbsp
p310
F4.167026359995665
sVstill
p311
F3.4543577076906997
sV24
p312
F3.3758031961925226
sV25
p313
F3.3938364717621834
sS'26'
p314
F3.7426257748852967
sVle
p315
F4.386592089961991
sVgroup
p316
F3.588642585218383
sVthank
p317
F3.0512386417142876
sS'img'
p318
F4.336527228360558
sVla
p319
F4.037760323484284
sVpersonal
p320
F3.649769845899384
sVc
p321
F2.5532965954800235
sVfix
p322
F4.192436075521034
sVconduct
p323
F4.276777223954784
sVlate
p324
F3.2407498104782957
sVwindow
p325
F3.0430514614795
sVproduction
p326
F3.6540525076913846
sVchoose
p327
F3.2651763122763042
sVconstitutes
p328
F4.366701931482771
sV400
p329
F4.411452127281386
sVpolicy
p330
F4.053633672640574
sVmail
p331
F2.4580513064969147
sVmain
p332
F3.588642585218383
sVmight
p333
F3.1622915861303844
sVsomeone
p334
F4.40234044693013
sVreturn
p335
F3.6286274093255746
sVfinance
p336
F4.042495928230118
sV3
p337
F2.293571290155774
sVfood
p338
F4.494933233757955
sVpowerful
p339
F4.255015732173272
sVsafe
p340
F3.3037281582620204
sVcover
p341
F4.052034951276878
sVintroduce
p342
F4.391066370356912
sVbreak
p343
F3.7205958984679963
sVinch
p344
F4.205387227868111
sVhalf
p345
F3.7298125535729203
sVfoot
p346
F4.416039291288292
sVinvestor
p347
F3.315895608752754
sVday
p348
F2.1578746133940347
sVbank
p349
F3.1293747711172424
sVeasily
p350
F4.296979931272303
sVterm
p351
F3.1319176841213547
sVerection
p352
F3.561868551613326
sVname
p353
F2.638946237019466
sVshop
p354
F3.6296739818962456
sV14995
p355
F3.944599911616452
sVjanuary
p356
F4.307236431439493
sV20
p357
F2.1367110604585133
sS'l'
p358
F2.906612244764777
sVexplode
p359
F4.309300415660344
sVaffiliate
p360
F3.517842302856836
sVinherent
p361
F3.726346345596434
sVstock
p362
F2.804763987432356
sVside
p363
F4.149263903655824
sVmean
p364
F2.822824214361079
sVweek
p365
F2.8242270670578282
sVeveryone
p366
F3.8820360792095956
sVfinancial
p367
F3.3782432136698883
sVdirectly
p368
F3.8502031526363845
sVweight
p369
F3.8956048084156643
sVp
p370
F2.8186274257344657
sVgeneration
p371
F4.4535144024548385
sVed
p372
F4.502423905487112
sVenergy
p373
F3.791884982215298
sVreceipt
p374
F4.276777223954784
sVreduce
p375
F4.434601309148351
sVidea
p376
F4.507449041689785
sVconstitute
p377
F4.448752488694595
sVowner
p378
F3.837232802193757
sVtrading
p379
F3.964890462806186
sVexpect
p380
F3.076210212763681
sVmeasure
p381
F4.338652627672872
sS'et'
p382
F4.485032162775243
sVgirl
p383
F4.044079459835762
sVmorning
p384
F4.3217745898855195
sVsexual
p385
F3.9856012622487476
sVevent
p386
F3.2093116642835113
sVspecial
p387
F2.4355928713992063
sVreally
p388
F3.768755527521528
sVcanada
p389
F3.6990408949061666
sVtry
p390
F3.0075786347111406
sVnetwork
p391
F3.6562007362296742
sVentertainment
p392
F3.999145487356505
sVprofit
p393
F3.6540525076913846
sVgod
p394
F4.404610595464669
sVcialis
p395
F3.211377069492788
sVsince
p396
F3.061271183815175
sVrx
p397
F4.292906605884668
sVpublish
p398
F4.192436075521034
sVresearch
p399
F3.782080982118677
sVcontent
p400
F3.641259156231475
sVre
p401
F3.504818862970549
sVhealth
p402
F3.6223708717112695
sS'7'
p403
F2.5398259912217243
sVinternet
p404
F3.1123771947486714
sVprint
p405
F4.197966043530494
sVformula
p406
F4.288849805189053
sVcause
p407
F3.0518260132436565
sVassurance
p408
F4.497423895070407
sVdisclose
p409
F4.342917026459329
sVexactly
p410
F4.301069916523828
sVdrink
p411
F4.319684724966061
sVlove
p412
F3.4774698475664483
sVcredit
p413
F3.3839598482662714
sVfriday
p414
F4.375493196893942
sVlittle
p415
F3.3151307903598317
sVfree
p416
F2.2755675305445218
sVquark
p417
F4.504933317092538
sVfive
p418
F3.724042197111584
sVsmall
p419
F3.452601780988435
sVreason
p420
F3.4300509554665384
sVbase
p421
F2.8033881559839595
sV12995
p422
F3.9590510301546264
sVimagine
p423
F4.222289038670715
sVask
p424
F3.1956502496276937
sVregion
p425
F4.425277232273228
sVobligation
p426
F4.4535144024548385
sValert
p427
F3.8820360792095956
sVacrobat
p428
F3.3612868122513984
sVcard
p429
F4.009808193100545
sVcare
p430
F3.999145487356505
sVrevolutionary
p431
F4.328070518342335
sVadvance
p432
F3.9707641948182797
sVtraining
p433
F4.512499557475854
sVservice
p434
F2.1973356822749484
sVg
p435
F3.0672200413349473
sVcould
p436
F2.673357383846247
sVomit
p437
F4.373288124335628
sVsuccess
p438
F3.7639535975261205
sVkeep
p439
F3.061864479590514
sVthing
p440
F3.170858360104236
sVamerican
p441
F3.978155211464669
sVplace
p442
F2.7094120879425914
sVmassive
p443
F4.379917982874297
sVw
p444
F3.0774150321865315
sVinvitation
p445
F4.434601309148351
sVpromotion
p446
F3.879344287543884
sVretail
p447
F3.491962854869015
sVthink
p448
F3.3220353057063763
sVsouth
p449
F3.4543577076906997
sVfirst
p450
F2.8830108479961924
sVmajor
p451
F3.6724612571014545
sValready
p452
F3.6349233377823893
sVsaving
p453
F4.4440131433306975
sVdont
p454
F4.420647594374486
sVrevenue
p455
F3.589648115720402
sVfeel
p456
F3.2301602304050547
sVthird
p457
F3.2336776452169333
sVca
p458
F3.103057462799869
sVnumber
p459
F2.585206481982161
sVrank
p460
F4.34719968825133
sVone
p461
F1.7963807296446699
sVemail
p462
F1.5354212041461013
sVfast
p463
F3.2093116642835113
sVanother
p464
F3.588642585218383
sVtype
p465
F3.8346587981985842
sVcarry
p466
F4.151026018649224
sVtel
p467
F3.999145487356505
sVxp
p468
F3.0541789555056833
sVopen
p469
F3.5967152829434945
sVseveral
p470
F3.8820360792095956
sVsize
p471
F3.6779407228660803
sVcity
p472
F3.6583535895907753
sVdiffer
p473
F3.399643207281823
sVmanagement
p474
F3.3839598482662714
sVsheet
p475
F4.174220635629692
sVpublication
p476
F3.988595276461352
sVquality
p477
F3.1701967656374976
sVstart
p478
F2.734334180344962
sVtogether
p479
F4.276777223954784
sVtop
p480
F2.9738644717739446
sVsystem
p481
F2.6269654173824106
sVleast
p482
F4.276777223954784
sVavoid
p483
F4.08946812564979
sVanyone
p484
F4.268809054305607
sVattach
p485
F4.301069916523828
sVassumption
p486
F3.6867708023143524
sVto20
p487
F4.097794568426345
sVstatement
p488
F3.16953560858862
sVgather
p489
F4.118065532799963
sVnorton
p490
F4.45590388985222
sVhundred
p491
F3.3798732058808194
sVfinal
p492
F4.497423895070407
sVstore
p493
F3.4079974747516806
sVlot
p494
F3.4801713350266086
sVrelationship
p495
F4.427600113689368
sVbehind
p496
F4.260903874798494
sVtool
p497
F3.923307410965
sVacquire
p498
F3.696798741500477
sVserve
p499
F4.313441208326376
sVimmediate
p500
F3.9605076946510906
sVdiscover
p501
F4.1078786874929705
sVforwardlooking
p502
F3.7567936624040277
sVpart
p503
F3.0143468500572794
sVunsubscribe
p504
F3.3798732058808194
sVword
p505
F2.9502328672406675
sVjuly
p506
F4.165235849221877
sVcopy
p507
F3.9707641948182797
sVcustomer
p508
F2.559023168037225
sVwhite
p509
F4.340782553930697
sV11
p510
F3.431767694085593
sVwide
p511
F3.6444421827915963
sVkind
p512
F3.2805668689047556
sV12
p513
F3.339899858472241
sV15
p514
F3.208624142771383
sVtarget
p515
F3.2543262962522386
sV17
p516
F3.7603672218948927
sV16
p517
F4.086156864346134
sV19
p518
F4.222289038670715
sVdouble
p519
F3.8398134487872486
sVrequire
p520
F2.8785542919696194
sVinstruction
p521
F4.058445229637797
sVboard
p522
F4.112959138725389
sVclaim
p523
F3.549228616677506
sVmatter
p524
F3.8398134487872486
sVcompensation
p525
F3.999145487356505
sVcost
p526
F3.1186389559726475
sVfriend
p527
F3.5263049767755694
sVhistorical
p528
F3.7603672218948927
sVdesign
p529
F3.2688193035548054
sVacquisition
p530
F4.071390394229834
sVprospect
p531
F4.475228162678622
sVetcand
p532
F4.03933636793975
sVoutstanding
p533
F4.086156864346134
sVpro
p534
F3.788197209136113
sVmind
p535
F3.8005430449584123
sVreader
p536
F3.664840098820382
sVmedical
p537
F3.7663516802101333
sVsay
p538
F2.7594546004284894
sVmedium
p539
F3.61925722103799
sVneed
p540
F2.0217031136317902
sVseem
p541
F4.427600113689368
sVturn
p542
F3.7171614360193614
sVseek
p543
F3.2917069766858034
sVcomplete
p544
F2.9975114355934167
sVsell
p545
F2.6261973681895086
sVissue
p546
F3.5066690022587106
sVform
p547
F3.0648362499796713
sVmin
p548
F4.317599218475039
sVspeculative
p549
F3.9946103321911135
sVdiligence
p550
F4.307236431439493
sVable
p551
F3.5150372519292272
sVinvestment
p552
F2.836942095906864
sVnote
p553
F3.1105062868128597
sValso
p554
F2.2221408011939197
sVwithout
p555
F2.764731657529333
sVbuild
p556
F3.6296739818962456
sVonline
p557
F2.4189179530222056
sVobjective
p558
F3.573679712541671
sVperformance
p559
F3.2224651941832545
sVmany
p560
F2.394263391458265
sVblank
p561
F4.512499557475854
sVaccuracy
p562
F3.7833012385239067
sVworldwide
p563
F3.4534793589297936
sV200
p564
F4.031480867999441
sVplay
p565
F3.549228616677506
sVsure
p566
F3.784522985774229
sVpain
p567
F3.7980616541070273
sV6995
p568
F4.2394814392110876
sVthough
p569
F4.299022832902104
sVtrack
p570
F4.101144655311626
sVquote
p571
F4.126634565525064
sVprice
p572
F1.703554493118216
sVreach
p573
F3.8320914026933384
sV75
p574
F4.005224533432886
sV1
p575
F1.9664223936963778
sVshareholder
p576
F4.1439961127209655
sVplan
p577
F3.069011621390152
sVletter
p578
F3.71830494672144
sV70
p579
F3.2608221689676835
sVdevice
p580
F4.395560759944751
sVamerica
p581
F3.591662215092103
sVextremely
p582
F4.311368668724403
sVpayment
p583
F3.788197209136113
sVvolume
p584
F4.303121199294386
sVunderstands
p585
F3.97223803443658
sVexpert
p586
F4.101144655311626
sVmobile
p587
F3.510379581655246
sVclear
p588
F4.328070518342335
sVlater
p589
F4.053633672640574
sS'm'
p590
F2.9657453473354405
sVsale
p591
F2.7861228475106508
sVface
p592
F4.336527228360558
sVtalk
p593
F3.665925286121669
sVenterprise
p594
F4.39781555233184
sVcommunication
p595
F3.854127291092519
sVhear
p596
F3.9205023600373914
sVpease
p597
F4.429928403448959
sVmailing
p598
F3.452601780988435
sVreview
p599
F3.346978142055837
sVfact
p600
F3.0913758052142835
sVreserve
p601
F3.589648115720402
sVsector
p602
F4.229893638055934
sVcurrently
p603
F3.439529699421082
sVshow
p604
F3.141511617638639
sVtext
p605
F3.9946103321911135
sVcheap
p606
F3.3097933777651107
sVcompensate
p607
F4.197966043530494
sVbring
p608
F3.2673605140911453
sVlarge
p609
F3.2010924399303793
sVparticipate
p610
F4.494933233757955
sVprotocol
p611
F4.422959734132865
sVaggressive
p612
F4.138755926057409
sVfont
p613
F4.123198136026484
sVavailability
p614
F4.104506003014331
sVstaff
p615
F4.2628743187857925
sVlitigation
p616
F3.9431662196146036
sVaccess
p617
F3.09627777581449
sVbelieve
p618
F2.8374161418982013
sVknowledge
p619
F4.436945976107605
sVcopyright
p620
F4.294941194582456
sVtitle
p621
F3.4215111939184037
sVdaily
p622
F4.465519348551662
sVhope
p623
F3.725193607716626
sVblue
p624
F4.45590388985222
sVenough
p625
F3.964890462806186
sVjan
p626
F4.439296153452559
sVviagra
p627
F2.78837763989774
sVair
p628
F3.9856012622487476
sV18
p629
F3.7980616541070273
sVrich
p630
F4.375493196893942
sVfactor
p631
F3.841106273789554
sVherein
p632
F3.4360724790372243
sVannounce
p633
F3.481976389668339
sS'52'
p634
F4.4068859093018045
sVlocal
p635
F4.18511003542896
sVachieve
p636
F4.147504888250645
sVyahoocom
p637
F3.4147315069330246
sVdo
p638
F3.891514823164139
sVdistribute
p639
F4.128357218836511
sVhit
p640
F4.336527228360558
sVget
p641
F1.5805297349717256
sVexpress
p642
F3.290214439095297
sVstop
p643
F2.6802219373516976
sV13
p644
F4.2628743187857925
sV095
p645
F3.982616185405294
sV120
p646
F4.077926365209619
sVnext
p647
F2.835994677550824
sVb
p648
F2.5782301364489077
sVcompetitive
p649
F4.40234044693013
sVreply
p650
F2.951295002231651
sVreport
p651
F2.736475050355546
sS'2'
p652
F1.9516481665258438
sVtrade
p653
F3.1395854533191994
sVdr
p654
F4.20911857548097
sV14
p655
F3.92190390196268
sVearn
p656
F3.571701472529565
sVresource
p657
F4.220396890518677
sS'h'
p658
F3.279828589063175
sVhello
p659
F3.092599046957028
sVremove
p660
F2.9117064992865203
sVpatch
p661
F4.45590388985222
sVprivacy
p662
F3.8385222930236287
sVbad
p663
F4.227987059785352
sVcommon
p664
F4.282795296280347
sVactivity
p665
F4.364516138262791
sVrelease
p666
F3.142797791449383
sS'x'
p667
F3.3352086848963607
sVanticipate
p668
F3.3220353057063763
sVview
p669
F3.1583623079904948
sVuser
p670
F3.5463342586511417
sVeurope
p671
F3.8901552036480997
sVrequirement
p672
F4.0221350055812035
sVset
p673
F3.2894690048453485
sVreference
p674
F3.733290817949245
sVmed
p675
F3.517842302856836
sVnational
p676
F3.8607019367346043
sVmethod
p677
F4.40916641200053
sVaccord
p678
F4.050438781744055
sVsex
p679
F3.5726901033565044
sVedition
p680
F4.066516298471588
sVsee
p681
F2.2162636921604673
sVindividual
p682
F3.9052136675223013
sVsec
p683
F4.064896864919285
sVresult
p684
F2.5175409464322893
sVclose
p685
F3.7993015798703476
sVmaterially
p686
F3.6605110877307965
sS'best'
p687
F2.061276237867852
sVsubject
p688
F2.736903774906593
sVproject
p689
F3.0378234507336024
sVwire
p690
F4.371087903426026
sVpotential
p691
F3.5926707880469877
sVmortgage
p692
F4.507449041689785
sVreform
p693
F3.8847351361787603
sVfederal
p694
F3.9052136675223013
sVmovie
p695
F4.323868831488634
sVaway
p696
F3.779644927320796
sVparticipant
p697
F4.4440131433306975
sVplease
p698
F1.68466176765134
sVstate
p699
F2.6912222519840157
sVfuture
p700
F2.4704576033953995
sVvarious
p701
F4.0488451559087775
sVneither
p702
F4.251109477206207
sVnumerous
p703
F4.416039291288292
sVacross
p704
F4.451130611099562
sVavailable
p705
F2.708161306040939
sVperfect
p706
F3.687880064768638
sVnotice
p707
F3.035508634885151
sVmen
p708
F3.3564944708110915
sVrecently
p709
F4.0456655029913975
sVability
p710
F3.6615915848645506
sVextend
p711
F4.512499557475854
sVwo
p712
F4.165235849221877
sVscreen
p713
F4.243342447868547
sVattention
p714
F3.879344287543884
sVdeliver
p715
F3.791884982215298
sVhowever
p716
F4.168820082449692
sVwi
p717
F3.999145487356505
sVprediction
p718
F3.809276724927167
sVinvest
p719
F3.1067749392000015
sVwindows
p720
F4.393311040210736
sVkey
p721
F3.777214792467504
sVapproval
p722
F4.227987059785352
sVcome
p723
F2.5691242640237286
sVdistribution
p724
F4.1724172086305416
sVimprove
p725
F4.128357218836511
sVprotect
p726
F4.227987059785352
sVinstant
p727
F4.3259674681455556
sS'22'
p728
F4.280785245352323
sVlicense
p729
F4.040914900232799
sValways
p730
F3.2872360303410364
sVcountry
p731
F2.979314076541509
sVpertain
p732
F3.879344287543884
sVuncertainty
p733
F3.4403958753089308
sVdrug
p734
F3.4738791794357198
sVforeign
p735
F4.156331070878917
sVapril
p736
F4.429928403448959
sVs
p737
F1.5754160110033708
sVagent
p738
F4.116360502548879
sVstudio
p739
F3.535792713980679
sVexpense
p740
F3.944599911616452
sVapprove
p741
F3.6746494417820075
sS'll'
p742
F3.250019039054658
sVamong
p743
F3.7906542128291654
sVco
p744
F4.133543055868876
sVpoint
p745
F3.98709714884033
sVsimple
p746
F4.3450560647080785
sVannual
p747
F4.404610595464669
sVtuesday
p748
F4.4899704444158255
sVdeposit
p749
F3.813043207722644
sVperiod
p750
F4.384362434634721
sVce
p751
F4.384362434634721
sVcd
p752
F3.561868551613326
sV100mg
p753
F4.45590388985222
sVactive
p754
F4.112959138725389
sVmedication
p755
F4.005224533432886
sVsimply
p756
F3.4291936900904196
sVnews
p757
F2.9193968729995357
sVrespect
p758
F3.3220353057063763
sVtrust
p759
F4.011340760450323
sV100
p760
F2.6342914574744833
sVexpensive
p761
F4.309300415660344
sVpr
p762
F4.465519348551662
sV101
p763
F4.512499557475854
sVraise
p764
F4.008277970919777
sVsource
p765
F3.2379149396924483
sVaddition
p766
F4.475228162678622
sVwest
p767
F4.2147418330353315
sVcreate
p768
F3.481976389668339
sVacceptance
p769
F4.068138358843456
sVmicrocap
p770
F4.197966043530494
sVthree
p771
F3.161635633335464
sVstrategy
p772
F3.973714049464701
sVsubscriber
p773
F3.591662215092103
sVpc
p774
F4.086156864346134
sVsecret
p775
F4.256974596658605
sVmuch
p776
F2.9025554440691628
sVtreat
p777
F4.13008284480398
sVdreamweaver
p778
F3.841106273789554
sVcertain
p779
F3.3352086848963607
sV500
p780
F3.655126045099909
sVtreatment
p781
F4.104506003014331
sVwebsite
p782
F2.9401984550808264
sVfield
p783
F4.256974596658605
sVlife
p784
F2.9534226626087676
sVpenny
p785
F3.979639992732248
sVetc
p786
F3.2710114856530264
sVthousand
p787
F2.7762617187448706
sVotc
p788
F4.1724172086305416
sVexcite
p789
F4.014412959487293
sVsearch
p790
F3.3782432136698883
sVantivirus
p791
F4.436945976107605
sVelse
p792
F4.342917026459329
sVfund
p793
F3.2224651941832545
sVposition
p794
F3.170858360104236
sVunderstand
p795
F3.3044843019653443
sVrepresentative
p796
F3.5926707880469877
sVdemand
p797
F4.006750086741724
sVprescription
p798
F3.017180515880851
sVgeneral
p799
F3.862022068939527
sVfl
p800
F4.393311040210736
sVpresent
p801
F3.765151920018229
sVcase
p802
F3.7993015798703476
sVp0
p803
F4.268809054305607
sVfactual
p804
F4.235635280623609
sVlook
p805
F2.282893570636595
sVbegin
p806
F3.5796380221253012
sVreliable
p807
F3.7906542128291654
sVbill
p808
F3.954693724785671
sVcash
p809
F3.399643207281823
sVvalue
p810
F3.2688193035548054
sVpill
p811
F3.32589184731613
sVnear
p812
F3.7639535975261205
sV1451
p813
F4.284809395652048
sV7995
p814
F3.9417345801431654
sVerror
p815
F3.97223803443658
sVfun
p816
F4.512499557475854
sVproperty
p817
F3.6572765835631373
sVstudy
p818
F4.416039291288292
sVpack
p819
F3.5187790710752225
sVdue
p820
F2.929223691151324
sVforce
p821
F4.342917026459329
sV30
p822
F3.3113154480741795
sVcongratulation
p823
F4.451130611099562
sVve
p824
F3.3815058593047045
sValmost
p825
F4.207251161306174
sVvi
p826
F4.009808193100545
sS'j'
p827
F3.3823231866898036
sVsite
p828
F2.346996456829354
sVgood
p829
F2.559023168037225
sV35
p830
F4.307236431439493
sVready
p831
F3.5677566942385486
sVmaya
p832
F4.446380008340964
sVtechnology
p833
F3.104295086720219
sVid
p834
F4.034615666804813
sVdifferent
p835
F4.2035267622151915
sVtadalafil
p836
F4.005224533432886
sVdevelop
p837
F3.3493487476701733
sVdoctor
p838
F3.713738728741859
sVgeneric
p839
F3.6317704187227737
sVimpact
p840
F4.404610595464669
sVmake
p841
F1.838089047968398
sVgovernment
p842
F3.6380862291908977
sVcheck
p843
F2.801099301700208
sVmember
p844
F3.3151307903598317
sVvanessa
p845
F4.229893638055934
sVhtml
p846
F4.124914874645538
sVphotoshop
p847
F3.3007092880447684
sVbig
p848
F3.2301602304050547
sS'9'
p849
F3.2322691942798754
sVparty
p850
F3.092599046957028
sVadvise
p851
F3.5396131579780645
sVdocument
p852
F4.151026018649224
sVmicrosoft
p853
F3.0389828711533373
sVconflict
p854
F3.7699596215863322
sVdevelopment
p855
F3.537701111506439
sVindependent
p856
F4.253060697337468
sVoil
p857
F4.2035267622151915
sVhttp
p858
F0.9510939307698456
sVpremiere
p859
F3.491962854869015
sVassist
p860
F3.9177051554163302
sVupon
p861
F3.6286274093255746
sVeffect
p862
F3.3782432136698883
sVhand
p863
F3.9346069662189334
sVdirector
p864
F3.5967152829434945
sVaverage
p865
F3.879344287543884
sVwaterfall
p866
F4.268809054305607
sVpurpose
p867
F3.6151207104862095
sVadvertisement
p868
F2.815375390348088
sVcompleteness
p869
F4.26484865308951
sVwrite
p870
F3.3282129315303335
sVopportunity
p871
F3.279828589063175
sVexpand
p872
F4.002180391051659
sVrecent
p873
F3.733290817949245
sVtransaction
p874
F3.533887951500025
sVcenter
p875
F3.5396131579780645
sVmention
p876
F3.71830494672144
sVwhole
p877
F4.364516138262791
sVmiss
p878
F3.946035662042556
sVwell
p879
F2.7625294985244326
sVperson
p880
F3.733290817949245
sVcontact
p881
F2.5444139646833857
sVrelief
p882
F4.092790387841768
sV21
p883
F4.019039027876075
sS'na'
p884
F4.188766346632071
sVtelephone
p885
F4.087811124442161
sVorganization
p886
F4.101144655311626
sVmodel
p887
F4.451130611099562
sVcorporate
p888
F3.888797430187639
sVspend
p889
F3.7544183643751206
sVpreference
p890
F4.121484339548749
sVagency
p891
F4.280785245352323
sVannounces
p892
F4.512499557475854
sV210
p893
F4.463106802146277
sVless
p894
F3.2175990045320817
sVceo
p895
F4.092790387841768
sVphoto
p896
F4.362335112316431
sVexecutive
p897
F4.319684724966061
sVrest
p898
F4.467937729415943
sVdose
p899
F3.7544183643751206
sVanticipates
p900
F4.233717734494337
sVvia
p901
F3.2969484712766413
sVidentify
p902
F3.1949720536030557
sVthanks
p903
F2.967363907170851
sVworld
p904
F2.588897885214121
sVand20
p905
F4.14574896154838
sVyes
p906
F4.400075440299278
sVreliance
p907
F4.1439961127209655
sVyet
p908
F4.26484865308951
sVprojection
p909
F3.68345037867705
sVprofitable
p910
F4.4535144024548385
sVweb
p911
F3.0660274353498242
sVshoud
p912
F4.45590388985222
sVdeath
p913
F4.4068859093018045
sVfamily
p914
F3.6812428722618393
sVmix
p915
F3.869979670612841
sVsupply
p916
F3.5367464574959886
sVsmith
p917
F4.068138358843456
sVpharmacy
p918
F4.296979931272303
sVdiscreet
p919
F3.936028430566311
sVcolor
p920
F4.280785245352323
sVadd
p921
F3.6048536798464657
sVinterested
p922
F3.2065644098083723
sVlocation
p923
F4.251109477206207
sVeasy
p924
F2.973321141143898
sVgrow
p925
F3.5472981141474484
sVsave
p926
F2.5321093622605795
sVloan
p927
F4.301069916523828
sVmatch
p928
F4.451130611099562
sVtake
p929
F1.9518437272969766
sVreal
p930
F3.232973171781669
sVwil
p931
F4.140499605662236
sVmarch
p932
F4.131811453704598
sVaround
p933
F3.8206190015311017
sVformat
p934
F4.1439961127209655
sVread
p935
F3.282784984416777
sVafrica
p936
F3.670277850120511
sVgra
p937
F4.467937729415943
sVunlimited
p938
F4.3259674681455556
sVpossible
p939
F3.3166610125405995
sVearly
p940
F4.055234954007548
sVdepartment
p941
F3.552131376335468
sVgame
p942
F4.154559591230535
sVboost
p943
F3.62133191057885
sV21b
p944
F3.883384697080889
sVknow
p945
F2.3348750962970097
sVstep
p946
F4.052034951276878
sVimmediately
p947
F3.858066889096599
sVunique
p948
F3.953245498609306
sVlike
p949
F2.17851392803436
sV60
p950
F3.0002977288421
sV17995
p951
F4.08946812564979
sVnecessary
p952
F3.486503332664116
sVd
p953
F3.7356164003927206
sVgift
p954
F4.38213773961261
sVsincerely
p955
F3.4774698475664483
sVmessage
p956
F2.086017946142995
sV50
p957
F3.1895629802390437
sVserver
p958
F4.026797018687015
sVspecific
p959
F4.126634565525064
sVbenefit
p960
F3.564808289154251
sVcontinue
p961
F3.3166610125405995
sVeither
p962
F4.112959138725389
sVnight
p963
F3.9915982817211217
sVpopular
p964
F3.4013084866008843
sVbecome
p965
F3.1861971069839385
sVsecurity
p966
F2.5476026299183503
sVsoft
p967
F3.1748371451939996
sVpage
p968
F3.704668371771895
sVyou20
p969
F4.066516298471588
sS'8'
p970
F3.2189869298069294
sVtherein
p971
F4.39781555233184
sVright
p972
F2.5800613034136233
sVold
p973
F3.9093601834841496
sVdeal
p974
F3.3359890204802416
sVpeople
p975
F2.8307998606737197
sVsoma
p976
F4.364516138262791
sVback
p977
F3.007016679090845
sV10
p978
F2.184913162276391
sVmacromedia
p979
F3.4543577076906997
sVgrowth
p980
F3.3749911782835107
sVlearn
p981
F3.3979806965082093
sVexamples
p982
F4.190599527713732
sVtable
p983
F4.09445566716083
sVdear
p984
F2.992515588400045
sVhome
p985
F3.0217311494448476
sVnewsletter
p986
F3.219681615489608
sV9995
p987
F3.940304987333571
sVfor20
p988
F4.416039291288292
sVcompetitor
p989
F3.92190390196268
sVoperation
p990
F3.7663516802101333
sVconfirm
p991
F4.047254065676535
sVnotification
p992
F4.07465303986465
sVdecision
p993
F4.357987279380327
sVshall
p994
F3.4658470077384553
sVper
p995
F2.6510723390568116
sVcreative
p996
F3.2521703485971702
sVquickly
p997
F3.9503553231870727
sVmarket
p998
F2.897507477771858
sVprovider
p999
F3.946035662042556
sVleader
p1000
F4.309300415660344
sVthe20
p1001
F4.507449041689785
sVofficer
p1002
F3.809276724927167
sVlocate
p1003
F4.154559591230535
sVrun
p1004
F3.7171614360193614
sVbusiness
p1005
F2.293846582655792
sVdatabase
p1006
F3.973714049464701
sV300
p1007
F4.14574896154838
sVbsp
p1008
F4.507449041689785
sVlose
p1009
F3.225955599123023
sVbroker
p1010
F4.121484339548749
sV1933
p1011
F3.643380047800613
sVdiscount
p1012
F3.5786425018837997
sVhost
p1013
F4.126634565525064
sVcorp
p1014
F4.432262126795179
sS'br'
p1015
F3.7194497665373736
sV1934
p1016
F3.6444421827915963
sS'r'
p1017
F2.8149116759878194
sVsuper
p1018
F3.9961197664399677
sVvalium
p1019
F4.303121199294386
sVmanufacturer
p1020
F3.85675196451529
sVactual
p1021
F3.449973658582165
sVusa
p1022
F3.837232802193757
sVanything
p1023
F4.14574896154838
sVpackage
p1024
F3.6286274093255746
sVindustry
p1025
F3.3059983067965595
sVbasis
p1026
F4.342917026459329
sS'o'
p1027
F4.241410080117493
sVrange
p1028
F3.6007762022298095
sVregular
p1029
F4.056838803589523
sVplus
p1030
F4.061665844337838
sVstand
p1031
F3.733290817949245
sVact
p1032
F2.6641444206241647
sVtongue
p1033
F4.4535144024548385
sVbook
p1034
F3.8244285299477694
sVautomatically
p1035
F4.309300415660344
sVsoftware
p1036
F2.531760017278861
sVsignificant
p1037
F4.3217745898855195
sVpress
p1038
F3.4122009277673078
sVtrademark
p1039
F4.375493196893942
sVimage
p1040
F4.006750086741724
sVwithin
p1041
F2.658181373735918
sVchild
p1042
F4.118065532799963
sVtwo
p1043
F2.7942640050943504
sVnothing
p1044
F3.4937893393950494
sVdvd
p1045
F4.393311040210736
sVadobe
p1046
F3.1774984907435138
sVmark
p1047
F4.427600113689368
sVcategory
p1048
F4.102823916831346
sVbankruptcy
p1049
F4.355820431295237
sV23
p1050
F3.984107609991964
sVcomputer
p1051
F3.3693254407478332
sVadditional
p1052
F3.35410688511659
sVspam
p1053
F4.235635280623609
sVtransfer
p1054
F3.8105306435867607
sVsupport
p1055
F3.1801669379573476
sVquestion
p1056
F3.5085225709080334
sVhey
p1057
F4.309300415660344
sVsubmit
p1058
F4.245278556895413
sVenroncom
p1059
F3.7103276964407965
sVfully
p1060
F4.299022832902104
sVlos
p1061
F4.497423895070407
sVlow
p1062
F2.610958978084576
sVway
p1063
F2.376163349814647
sVhouse
p1064
F4.044079459835762
sVforward
p1065
F2.9886471116221247
sVcall
p1066
F2.9722353647071524
sVhappy
p1067
F3.8042767145104612
sVbillion
p1068
F4.2241847738356135
sVhead
p1069
F3.7627567092922742
sVbuy
p1070
F2.808442152498684
sVnorth
p1071
F3.92190390196268
sVinterest
p1072
F2.9323470669335925
sVoffering
p1073
F4.286827559808286
sVoffer
p1074
F1.9185682272127413
sVlast
p1075
F2.8186274257344657
sVregard
p1076
F2.4648883834315636
sVdelivery
p1077
F3.774790548855998
sVcontract
p1078
F3.9024588448434567
sVhi
p1079
F3.366102230866265
sVlink
p1080
F2.782076988991107
sVgain
p1081
F3.688990559052665
sVrelate
p1082
F4.282795296280347
sVline
p1083
F3.2894690048453485
sVpromote
p1084
F4.391066370356912
sVrolex
p1085
F4.360158832893835
sVinfo
p1086
F3.537701111506439
sVillustrator
p1087
F3.7228921107283464
sVhappen
p1088
F3.938877435342386
sVcontain
p1089
F3.255766181310226
sVwish
p1090
F2.8322139547109177
sVofficial
p1091
F3.97223803443658
sVus
p1092
F3.312839838613276
sVlead
p1093
F3.559913516777523
sVrecord
p1094
F3.7275004138145404
sVeconomic
p1095
F4.3688925128625895
sVlimit
p1096
F3.4147315069330246
sVsum
p1097
F3.8067735947090484
sVexport
p1098
F4.364516138262791
sVproblem
p1099
F3.5187790710752225
sS'z'
p1100
F4.091127877068155
sVsimilar
p1101
F3.868648998427136
sVagree
p1102
F4.303121199294386
sVassistance
p1103
F3.7943510747104914
sVfirm
p1104
F4.222289038670715
sS'v'
p1105
F3.155751340449774
sVmoney
p1106
F2.3616208765828044
sVad
p1107
F4.4825721369343805
sVrequest
p1108
F3.3798732058808194
sVyear
p1109
F2.3755656211656495
sVcondition
p1110
F3.618221488164458
sVal
p1111
F3.4257719587792583
sVproven
p1112
F3.9751922463340117
sVdrive
p1113
F3.4517249725149
sVenable
p1114
F4.138755926057409
sVexist
p1115
F4.005224533432886
sVwebsites
p1116
F4.101144655311626
sVfile
p1117
F3.3685186637778934
sVlogo
p1118
F3.940304987333571
sVaccounting
p1119
F4.311368668724403
sVship
p1120
F3.092599046957028
sV8995
p1121
F4.0221350055812035
sV80
p1122
F3.3352086848963607
sVinc
p1123
F2.8835072490984683
sVarea
p1124
F3.2894690048453485
sS'nj'
p1125
F4.147504888250645
sVsolicitation
p1126
F2.8033881559839595
sV48
p1127
F4.015952605672886
sVcorporation
p1128
F3.888797430187639
sV45
p1129
F4.119773475145119
sVpercent
p1130
F4.388826727763407
sVdetail
p1131
F2.810286320840617
sV40
p1132
F3.7012880868630713
sS'application'
p1133
F3.7035403400673963
sVvalid
p1134
F4.056838803589523
sS'5'
p1135
F2.3343015373481055
sS'normal'
p1136
F3.7579834305396167
sVdigital
p1137
F4.296979931272303
sVtest
p1138
F4.137015281579625
sVnt
p1139
F2.167048989670076
sVnice
p1140
F4.0221350055812035
sVpicture
p1141
F4.176027320854641
sVdraw
p1142
F3.266631916609005
sVstar
p1143
F4.448752488694595
sVmonday
p1144
F4.231803858312053
sVxanax
p1145
F4.08946812564979
sVgas
p1146
F4.20911857548097
sVsymbol
p1147
F3.8449948075292464
sVwelcome
p1148
F4.290876148334286
sVjune
p1149
F3.721743345524473
sVupdate
p1150
F3.687880064768638
sVstay
p1151
F4.186936519954995
sVchance
p1152
F3.9946103321911135
sVimportant
p1153
F3.6812428722618393
sVintent
p1154
F4.241410080117493
sVprofessional
p1155
F2.5529397712121877
sVserial
p1156
F4.463106802146277
sVago
p1157
F4.323868831488634
sVshipping
p1158
F3.7544183643751206
sVe
p1159
F2.416424963261117
sVlonger
p1160
F4.233717734494337
sVcorel
p1161
F3.2386229043237886
sVwife
p1162
F4.1998161828186555
sVconsumer
p1163
F4.047254065676535
sVage
p1164
F3.9317700848837336
sVbottom
p1165
F4.280785245352323
sVrule
p1166
F4.272785202685247
sVfiling
p1167
F4.154559591230535
sV2002
p1168
F3.7508659627707526
sV2003
p1169
F3.167554756174659
sV2000
p1170
F4.08946812564979
sV2001
p1171
F3.9038353075521797
sVu
p1172
F1.627628130772735
sV2004
p1173
F2.8312710032030473
sVtime
p1174
F1.653123639491324
sVinternational
p1175
F3.1230456360655947
sVoriginal
p1176
F3.869979670612841
sVothers
p1177
F3.649769845899384
sVmillion
p1178
F2.5866814085032295
s.