(dp0
Vexpect estim project time
p1
F3.7607777840920087
sV21b secur exchang act
p2
F3.8776882954804908
sVstatement base expect estim
p3
F3.755206739042553
sVfutur event perform statement
p4
F3.803580323326769
sVwindow xp profession offic
p5
F3.840704111200968
sVcertain action may could
p6
F3.8574855881629713
sVunderstood inform provid invest
p7
F3.8153106631122586
sVwithin mean section 27a
p8
F3.7318700588633176
sVphotoshop 80c includ imagereadi
p9
F3.888738131667076
sVstatement within mean section
p10
F3.6586347294178063
sVaction may identifi use
p11
F3.7948719954349848
sVsubscrib seek advic regist
p12
F3.809428293209192
sVmay identifi use word
p13
F3.7891082907182345
sVadob premier 7 adob
p14
F3.8745534966751194
sV7 adob illustr 10
p15
F3.871428494131984
sVdreamweav mx flash mx
p16
F3.8871520885114412
sVsecur exchang act 1934
p17
F3.596305456456697
sVprofession includ servic pack
p18
F3.888738131667076
sVrisk uncertainti could caus
p19
F3.7607777840920087
sVassumpt futur event perform
p20
F3.7791010592419894
sVproduct microsoft adob macromedia
p21
F3.8855685569057967
sVprofession offic xp profession
p22
F3.828673890924426
sVact 1934 statement express
p23
F3.828673890924426
sVpremier 7 adob illustr
p24
F3.8667592249483005
sVaction may could might
p25
F3.8574855881629713
sVinclud servic pack 2
p26
F3.888738131667076
sV80c includ imagereadi cs
p27
F3.888738131667076
sVstudio mx 2004 includ
p28
F3.879259387712532
sVidentifi use word project
p29
F3.8153106631122586
sVword project forese expect
p30
F3.7791010592419894
sVsection 27a secur act
p31
F3.7157189675354347
sVbase expect estim project
p32
F3.7565965933316074
sV10 main product microsoft
p33
F3.888738131667076
sVmx flash mx firework
p34
F3.8871520885114412
sVreader subscrib seek advic
p35
F3.8079630914818643
sVindic certain action may
p36
F3.6598965592382284
sVxp profession offic xp
p37
F3.8301697775160086
sVmain product microsoft adob
p38
F3.8855685569057967
sVprivat secur litig reform
p39
F3.812365152882502
sVstatement indic certain action
p40
F3.6687742332702458
sVadob macromedia corel etcand
p41
F3.8824089966154283
sVstatement histor fact may
p42
F3.8167866781403794
sVmay could might occur
p43
F3.8621116565517535
sV27a secur act 1933
p44
F3.690668217904982
sVsecur must understood inform
p45
F3.777679594894612
sVmicrosoft offic 2003 profession
p46
F3.809428293209192
sV7 adob premier 7
p47
F3.876119667707864
sV2004 includ dreamweav mx
p48
F3.879259387712532
sVmx 2004 includ dreamweav
p49
F3.879259387712532
sVinform provid invest advic
p50
F3.810895644903142
sVsecur litig reform act
p51
F3.813836823493958
sVadob macromedia corel etc
p52
F3.8855685569057967
sVstatement action may identifi
p53
F3.770602424520527
sVmacromedia studio mx 2004
p54
F3.6058293379679527
sVlitig reform act 1995
p55
F3.833168280512265
sVsecur act 1933 section
p56
F3.7011395177722775
sVmicrosoft adob macromedia corel
p57
F3.8824089966154283
sVemail messag advertis andor
p58
F3.071829350078413
sVsecur repres decid trade
p59
F3.7819500640180643
sVflash mx firework mx
p60
F3.8808329521599627
sVphotoshop 7 adob premier
p61
F3.876119667707864
sVestim project time statement
p62
F3.7663800396406786
sVinclud dreamweav mx flash
p63
F3.8871520885114412
sVwindow xp profession includ
p64
F3.8824089966154283
sVexchang act 1934 statement
p65
F3.7482862961979797
sVuse word project forese
p66
F3.812365152882502
sVmessag advertis andor solicit
p67
F3.071829350078413
sVadob illustr 10 main
p68
F3.888738131667076
sVxp profession includ servic
p69
F3.8824089966154283
sVillustr 10 main product
p70
F3.888738131667076
sVproject time statement made
p71
F3.76357498871307
sVadob acrobat 60 profession
p72
F3.821227840140347
sVconstru kind invest advic
p73
F3.7720138573589344
sVmean section 27a secur
p74
F3.7210737326730947
sVadob photoshop 7 adob
p75
F3.8745534966751194
sVact 1933 section 21b
p76
F3.7510487288938896
sVmust understood inform provid
p77
F3.777679594894612
sVadob photoshop 80c includ
p78
F3.8824089966154283
s.