(dp0
V7 adob premier 7 adob illustr 10all main product microsoft
p1
F3.9509513161686485
sVoffer 8995 window xp profession offic xp profession 14995 adob
p2
F3.9509513161686485
sV7995 offic xp profession 9995 adob photoshop 80c includ imagereadi
p3
F3.9940986473249023
sVinclud dreamweav mx flash mx firework mx 7995 adob acrobat
p4
F3.9509513161686485
sV17995 macromedia studio mx 2004 includ dreamweav mx flash mx
p5
F3.9509513161686485
sVmx 2004 includ dreamweav mx flash mx firework mx 7995
p6
F3.9509513161686485
sV8995 microsoft offic 2003 profession 7995 offic xp profession 9995
p7
F3.9940986473249023
sV5 cd 12995 adob photoshop 7 adob premier 7 adob
p8
F3.9976322199062135
sVoffic xp profession 14995 adob creativ suit premium 5 cd
p9
F3.9923365323315028
sVprofession includ servic pack 2 8995 microsoft offic 2003 profession
p10
F3.9509513161686485
sVbox 1451 waterfal south africa 3652thi email messag advertis andor
p11
F4.127882024327727
sVimagereadi cs 17995 macromedia studio mx 2004 includ dreamweav mx
p12
F3.9509513161686485
sVphotoshop 7 adob premier 7 adob illustr 10 main product
p13
F3.888738131667076
sVpertain invest stock secur must understood inform provid invest advic
p14
F3.9628461038207976
sVadob photoshop 7 adob premier 7 adob illustr 10all main
p15
F3.9509513161686485
sVmarket p0 box 1451 waterfal south africa 3652thi email messag
p16
F4.127882024327727
sV9995 adob photoshop 80c includ imagereadi cs 17995 macromedia studio
p17
F3.9509513161686485
sVxp profession 14995 adob creativ suit premium 5 cd 12995
p18
F3.9923365323315028
sVprofession 7995 offic xp profession 9995 adob photoshop 80c includ
p19
F3.9940986473249023
sV7995 window xp profession includ servic pack 2 8995 microsoft
p20
F3.9509513161686485
sV8995 window xp profession offic xp profession 14995 adob creativ
p21
F3.9976322199062135
sVadob premier 7 adob illustr 10 main product microsoft adob
p22
F3.888738131667076
sVexpect estim project time statement made involv number risk uncertainti
p23
F4.006521167323459
sVstatement base expect estim project time statement made involv number
p24
F4.020909904775559
sVadob photoshop 80c includ imagereadi cs 17995 macromedia studio mx
p25
F3.9509513161686485
sVpremium 5 cd 12995 adob photoshop 7 adob premier 7
p26
F3.9976322199062135
sVinclud imagereadi cs 17995 macromedia studio mx 2004 includ dreamweav
p27
F3.9509513161686485
sVadob illustr 10 main product microsoft adob macromedia corel etc
p28
F3.888738131667076
sV12995 adob photoshop 7 adob premier 7 adob illustr 10
p29
F3.9509513161686485
sVseek advic regist profession secur repres decid trade stock featur
p30
F4.2075887669384695
sVstudio mx 2004 includ dreamweav mx flash mx firework mx
p31
F3.8871520885114412
sVprofession 14995 adob creativ suit premium 5 cd 12995 adob
p32
F3.9923365323315028
sVlook statement action may identifi use word project forese expect
p33
F4.115857831360925
sVxp profession offic xp profession 14995 adob creativ suit premium
p34
F3.9923365323315028
sVphotoshop 80c includ imagereadi cs 17995 macromedia studio mx 2004
p35
F3.9509513161686485
sVbase expect estim project time statement made involv number risk
p36
F4.010098988671343
sVservic pack 2 8995 microsoft offic 2003 profession 7995 offic
p37
F3.9940986473249023
sVproject time statement made involv number risk uncertainti could caus
p38
F4.171143147018013
sVxp profession includ servic pack 2 8995 microsoft offic 2003
p39
F3.9509513161686485
sVspecial offer 8995 window xp profession offic xp profession 14995
p40
F3.9509513161686485
sVcd 12995 adob photoshop 7 adob premier 7 adob illustr
p41
F3.9976322199062135
sVreader subscrib seek advic regist profession secur repres decid trade
p42
F4.0672574025112915
sVsection 27a secur act 1933 section 21b secur exchang act
p43
F3.952641933646556
sVlook statement within mean section 27a secur act 1933 section
p44
F4.192420545465298
sV80c includ imagereadi cs 17995 macromedia studio mx 2004 includ
p45
F3.9509513161686485
sVadob photoshop 7 adob premier 7 adob illustr 10 main
p46
F3.888738131667076
sV7 adob illustr 10 main product microsoft adob macromedia corel
p47
F3.888738131667076
sVadvic regist profession secur repres decid trade stock featur within
p48
F4.2075887669384695
sV1451 waterfal south africa 3652thi email messag advertis andor solicit
p49
F4.127882024327727
sVsecur act 1933 section 21b secur exchang act 1934 statement
p50
F3.916093015116443
sVsection 21b secur exchang act 1934 statement express involv discuss
p51
F4.225210368288288
sVprofession offic xp profession 14995 adob creativ suit premium 5
p52
F3.9923365323315028
sVestim project time statement made involv number risk uncertainti could
p53
F4.171143147018013
sV27a secur act 1933 section 21b secur exchang act 1934
p54
F3.957731003154027
sV2 8995 microsoft offic 2003 profession 7995 offic xp profession
p55
F3.9940986473249023
sVwindow xp profession offic xp profession 14995 adob creativ suit
p56
F3.9976322199062135
sVinclud servic pack 2 8995 microsoft offic 2003 profession 7995
p57
F3.9940986473249023
sVphotoshop 7 adob premier 7 adob illustr 10all main product
p58
F3.9509513161686485
sV7 adob illustr 10all main product microsoft adob macromedia corel
p59
F3.9509513161686485
sVadob illustr 10all main product microsoft adob macromedia corel etcand
p60
F3.9509513161686485
sVcs 17995 macromedia studio mx 2004 includ dreamweav mx flash
p61
F3.9509513161686485
sVoffic 2003 profession 7995 offic xp profession 9995 adob photoshop
p62
F3.9940986473249023
sV14995 adob creativ suit premium 5 cd 12995 adob photoshop
p63
F3.9923365323315028
sVpack 2 8995 microsoft offic 2003 profession 7995 offic xp
p64
F3.9940986473249023
sVsecur exchang act 1934 statement express involv discuss respect predict
p65
F4.198893059970915
sVxp profession 9995 adob photoshop 80c includ imagereadi cs 17995
p66
F3.9940986473249023
sVmacromedia studio mx 2004 includ dreamweav mx flash mx firework
p67
F3.8871520885114412
sVadob premier 7 adob illustr 10all main product microsoft adob
p68
F3.9509513161686485
sVoffic xp profession 9995 adob photoshop 80c includ imagereadi cs
p69
F3.9940986473249023
sVsuit premium 5 cd 12995 adob photoshop 7 adob premier
p70
F3.9976322199062135
sVmicrosoft offic 2003 profession 7995 offic xp profession 9995 adob
p71
F3.9940986473249023
sVpremier 7 adob illustr 10 main product microsoft adob macromedia
p72
F3.888738131667076
sVprofession 9995 adob photoshop 80c includ imagereadi cs 17995 macromedia
p73
F3.9509513161686485
sV7 adob premier 7 adob illustr 10 main product microsoft
p74
F3.888738131667076
sVwindow xp profession includ servic pack 2 8995 microsoft offic
p75
F3.9509513161686485
sVmean section 27a secur act 1933 section 21b secur exchang
p76
F3.9594331312245576
sVdreamweav mx flash mx firework mx 7995 adob acrobat 60
p77
F3.9509513161686485
sVadob creativ suit premium 5 cd 12995 adob photoshop 7
p78
F3.9923365323315028
sVact 1933 section 21b secur exchang act 1934 statement express
p79
F4.006521167323459
sV1933 section 21b secur exchang act 1934 statement express involv
p80
F4.222990611549976
sVexampl 7995 window xp profession includ servic pack 2 8995
p81
F3.9509513161686485
sVgetrespons market p0 box 1451 waterfal south africa 3652thi email
p82
F4.127882024327727
sVmx flash mx firework mx 7995 adob acrobat 60 profession
p83
F3.9509513161686485
sVp0 box 1451 waterfal south africa 3652thi email messag advertis
p84
F4.127882024327727
sVcreativ suit premium 5 cd 12995 adob photoshop 7 adob
p85
F3.9976322199062135
sV12995 adob photoshop 7 adob premier 7 adob illustr 10all
p86
F3.9509513161686485
sV2004 includ dreamweav mx flash mx firework mx 7995 adob
p87
F3.9509513161686485
sVwithin mean section 27a secur act 1933 section 21b secur
p88
F3.961138161475642
sVpremier 7 adob illustr 10all main product microsoft adob macromedia
p89
F3.9509513161686485
sVstatement within mean section 27a secur act 1933 section 21b
p90
F3.969707194200743
sV21b secur exchang act 1934 statement express involv discuss respect
p91
F4.222990611549976
sV2003 profession 7995 offic xp profession 9995 adob photoshop 80c
p92
F3.9940986473249023
s.