(dp0
Vmicrosoft adob macromedia corel etcand
p1
F3.888738131667076
sVillustr 10 main product microsoft
p2
F3.888738131667076
sVxp profession offic xp profession
p3
F3.8346709103968
sVmust understood inform provid invest
p4
F3.8153106631122586
sVstudio mx 2004 includ dreamweav
p5
F3.879259387712532
sVsecur must understood inform provid
p6
F3.777679594894612
sVwindow xp profession includ servic
p7
F3.8824089966154283
sVprivat secur litig reform act
p8
F3.813836823493958
sVsecur repres decid trade stock
p9
F3.924283069086487
sVstatement action may identifi use
p10
F3.810895644903142
sVphotoshop 80c includ imagereadi cs
p11
F3.888738131667076
sVbase expect estim project time
p12
F3.7649765306383585
sVinclud dreamweav mx flash mx
p13
F3.8871520885114412
sVexchang act 1934 statement express
p14
F3.828673890924426
sVsecur act 1933 section 21b
p15
F3.7607777840920087
sVadob illustr 10 main product
p16
F3.888738131667076
sVunderstood inform provid invest advic
p17
F3.8227126214079266
sVsecur exchang act 1934 statement
p18
F3.8667592249483005
sVstatement within mean section 27a
p19
F3.805039112790429
sVmx 2004 includ dreamweav mx
p20
F3.879259387712532
sVstatement indic certain action may
p21
F3.6764469051819058
sV10 main product microsoft adob
p22
F3.888738131667076
sV27a secur act 1933 section
p23
F3.871428494131984
sVcaus actual result event differ
p24
F3.9325407543254687
sVpremier 7 adob illustr 10
p25
F3.8729897746989366
sVadob photoshop 80c includ imagereadi
p26
F3.888738131667076
sVinvest stock secur must understood
p27
F3.906352678368058
sV7 adob illustr 10 main
p28
F3.888738131667076
sVassumpt futur event perform statement
p29
F3.805039112790429
sVmay identifi use word project
p30
F3.8256888140809724
sVwindow xp profession offic xp
p31
F3.840704111200968
sVemail messag advertis andor solicit
p32
F3.071829350078413
sVaction may identifi use word
p33
F3.796318127284984
sVaction may could might occur
p34
F3.8621116565517535
sVsection 21b secur exchang act
p35
F3.890326694352214
sVphotoshop 7 adob premier 7
p36
F3.876119667707864
sVdecid trade stock featur within
p37
F3.8983075826832265
sVuse word project forese expect
p38
F3.813836823493958
sVestim project time statement made
p39
F3.7677855212494133
sVmean section 27a secur act
p40
F3.7210737326730947
sV1933 section 21b secur exchang
p41
F3.8935114104197335
sVdreamweav mx flash mx firework
p42
F3.8871520885114412
sVadob photoshop 7 adob premier
p43
F3.876119667707864
sVmicrosoft adob macromedia corel etc
p44
F3.8855685569057967
sVstock secur must understood inform
p45
F3.9177256685403283
sVmx flash mx firework mx
p46
F3.8871520885114412
sVreader subscrib seek advic regist
p47
F3.8167866781403794
sV21b secur exchang act 1934
p48
F3.8855685569057967
sVadob premier 7 adob illustr
p49
F3.876119667707864
sVrepres decid trade stock featur
p50
F3.919360991881059
sVstatement base expect estim project
p51
F3.7720138573589344
sVidentifi use word project forese
p52
F3.8197452601801243
sVmain product microsoft adob macromedia
p53
F3.8855685569057967
sVmacromedia studio mx 2004 includ
p54
F3.8808329521599627
sVcertain action may could might
p55
F3.8590252343485645
sVpertain invest stock secur must
p56
F3.9095889271472664
sVact 1933 section 21b secur
p57
F3.8935114104197335
sV7 adob premier 7 adob
p58
F3.876119667707864
sVxp profession includ servic pack
p59
F3.888738131667076
sVwithin mean section 27a secur
p60
F3.733227832323778
sVindic certain action may could
p61
F3.8621116565517535
sVproduct microsoft adob macromedia corel
p62
F3.8855685569057967
sV2004 includ dreamweav mx flash
p63
F3.8871520885114412
sVexpect estim project time statement
p64
F3.7677855212494133
sVsecur litig reform act 1995
p65
F3.8361758015762204
sVsection 27a secur act 1933
p66
F3.7345874518398174
sVprofession includ servic pack 2
p67
F3.888738131667076
s.