(dp0
S''
p1
F1.928645316004768
sVlimited
p2
F3.58063453441504
sVconsider
p3
F3.2365005122996378
sVrepresent
p4
F3.426626294585174
sVchild
p5
F4.118065532799963
sVdollar
p6
F2.8056822611424286
sVmonth
p7
F2.7620896480664947
sVfour
p8
F3.9374519183511647
sVsleep
p9
F4.386592089961991
sVfollow
p10
F2.843122291475056
sVcontent
p11
F3.641259156231475
sVtr
p12
F4.330178000681899
sVprogram
p13
F3.0938237868529237
sVth
p14
F4.451130611099562
sS'td'
p15
F4.026797018687015
sVworth
p16
F3.9024588448434567
sVfax
p17
F3.6317704187227737
sVwoman
p18
F3.772372167991716
sVpremium
p19
F3.662673250735292
sVrisk
p20
F3.0541789555056833
sVconfidential
p21
F4.077926365209619
sVfar
p22
F4.317599218475039
sVrise
p23
F4.446380008340964
sVprint
p24
F4.197966043530494
sVevery
p25
F2.814448176558896
sVdecide
p26
F3.2231623012174104
sVfall
p27
F4.323868831488634
sVticket
p28
F4.165235849221877
sVcondition
p29
F3.618221488164458
sVschool
p30
F4.502423905487112
sVlist
p31
F2.5789622009032707
sVsolution
p32
F3.318960745252131
sVlarge
p33
F3.2010924399303793
sVassurance
p34
F4.497423895070407
sVsmall
p35
F3.452601780988435
sVenhance
p36
F4.052034951276878
sVenjoy
p37
F3.784522985774229
sV199
p38
F4.418340788276571
sVandor
p39
F2.988095691701894
sVten
p40
F4.174220635629692
sVdirect
p41
F3.6901022879053555
sVpast
p42
F3.5836300433948387
sVacross
p43
F4.451130611099562
sVsecond
p44
F3.517842302856836
sVstreet
p45
F4.119773475145119
sVdesign
p46
F3.2688193035548054
sVpass
p47
F4.313441208326376
sVair
p48
F3.9856012622487476
sVinvestment
p49
F2.836942095906864
sVeven
p50
F2.7691505776673684
sVsection
p51
F3.4937893393950494
sVasia
p52
F4.366701931482771
sVversion
p53
F4.009808193100545
sV10all
p54
F4.096123724261527
sVconduct
p55
F4.276777223954784
sVnew
p56
F1.987885458092741
sVnet
p57
F3.771165167241681
sVever
p58
F3.069609528732329
sVpublic
p59
F3.4614124106705897
sV27a
p60
F3.818087354609322
sVfull
p61
F2.78837763989774
sVnever
p62
F3.16953560858862
sVchina
p63
F3.9561440513633173
sVactive
p64
F4.112959138725389
sVmethod
p65
F4.40916641200053
sVstrong
p66
F3.469408899304816
sVpublisher
p67
F3.9856012622487476
sVsearch
p68
F3.3782432136698883
sVproperty
p69
F3.6572765835631373
sS'k'
p70
F3.5244181837629927
sVcompliance
p71
F3.726346345596434
sVexperience
p72
F3.3352086848963607
sVprior
p73
F3.3414684862448674
sVamount
p74
F3.74379879554766
sVadvertising
p75
F4.015952605672886
sVpick
p76
F4.099468208984374
sVaction
p77
F3.116756307158031
sVvia
p78
F3.2969484712766413
sVand20
p79
F4.14574896154838
sVsecure
p80
F3.3954921012794443
sVcampaign
p81
F3.862022068939527
sVafrica
p82
F3.670277850120511
sVhighly
p83
F3.8244285299477694
sVask
p84
F3.1956502496276937
sVtotal
p85
F3.116756307158031
sVestablish
p86
F4.386592089961991
sVselect
p87
F3.2572081426271273
sVeye
p88
F4.270795152277237
sVwould
p89
F2.358385103793363
sVcontains
p90
F4.028355865456306
sVfinally
p91
F4.497423895070407
sVacrobat
p92
F3.3612868122513984
sVmusic
p93
F4.009808193100545
sVasset
p94
F4.167026359995665
sS'6'
p95
F2.904581787214395
sVtype
p96
F3.8346587981985842
sVtell
p97
F3.5234761205750917
sVdoor
p98
F4.256974596658605
sVsuccessful
p99
F3.954693724785671
sVcompany
p100
F2.2172833200846442
sVaward
p101
F4.084505336307662
sVaware
p102
F3.60179401402251
sS'99'
p103
F4.357987279380327
sVphone
p104
F3.1715203925680058
sV90
p105
F3.730970631293548
sVhold
p106
F3.172182863609127
sVyour20
p107
F4.255015732173272
sV0rder
p108
F4.188766346632071
sVmust
p109
F2.7287892738369064
sVnone
p110
F3.635976523767048
sVjoin
p111
F3.637030820121954
sVroom
p112
F4.286827559808286
sVhour
p113
F2.9122173549808994
sVwork
p114
F2.5254925872924474
sVremain
p115
F4.149263903655824
sVmr
p116
F3.4956191660721254
sVmale
p117
F4.355820431295237
sVmx
p118
F3.352518322431452
sVhistory
p119
F3.886087401428774
sVcompare
p120
F3.6562007362296742
sVgive
p121
F2.4773803275975177
sV3652this
p122
F4.284809395652048
sVshare
p123
F2.7581396758471803
sVaccept
p124
F4.091127877068155
sVinvolve
p125
F3.3422537238195695
sVwant
p126
F2.213465064204832
sVguarantee
p127
F3.084067611907559
sVhuge
p128
F3.346978142055837
sVend
p129
F3.346189187379805
sVgoal
p130
F3.6171868269236813
sVturn
p131
F3.7171614360193614
sVprovide
p132
F2.469800788921869
sVverify
p133
F4.373288124335628
sVtravel
p134
F3.933187519564707
sVfeature
p135
F3.015479353009579
sVid
p136
F4.034615666804813
sVhot
p137
F3.3438260511875217
sV80cs
p138
F3.8942396204903242
sVanswer
p139
F3.880689277659217
sVconstrue
p140
F3.8017860531980094
sVadvice
p141
F3.257929903755537
sVinvitation
p142
F4.434601309148351
sVblood
p143
F4.201669751467978
sVpresident
p144
F3.6328202875856106
sVlaw
p145
F4.197966043530494
sVfl
p146
F4.393311040210736
sVresponse
p147
F4.118065532799963
sVa
p148
F2.994732884208693
sVpurchase
p149
F3.3517249864120564
sVshort
p150
F3.6934449094020456
sVeffective
p151
F3.8055243753086168
sVrolex
p152
F4.360158832893835
sVregister
p153
F3.1499014700138153
sVanytime
p154
F4.434601309148351
sValias
p155
F4.3259674681455556
sVgreen
p156
F4.395560759944751
sVenter
p157
F3.3717496843593397
sVoperate
p158
F3.4937893393950494
sVorder
p159
F2.2807172912139992
sVphotoshop
p160
F3.3007092880447684
sVhelp
p161
F2.6641444206241647
sVoffice
p162
F2.745949712102595
sVsoon
p163
F3.398811606402297
sVtrade
p164
F3.1395854533191994
sVpaper
p165
F4.502423905487112
sV24
p166
F3.3758031961925226
sV25
p167
F3.3938364717621834
sS'26'
p168
F3.7426257748852967
sVposition
p169
F3.170858360104236
sV20
p170
F2.1367110604585133
sV21
p171
F4.019039027876075
sS'img'
p172
F4.336527228360558
sV23
p173
F3.984107609991964
sVpersonal
p174
F3.649769845899384
sVfix
p175
F4.192436075521034
sVlate
p176
F3.2407498104782957
sVproduction
p177
F3.6540525076913846
sV400
p178
F4.411452127281386
sVmight
p179
F3.1622915861303844
sVsomeone
p180
F4.40234044693013
sVreturn
p181
F3.6286274093255746
sVfood
p182
F4.494933233757955
sVsafe
p183
F3.3037281582620204
sVbreak
p184
F3.7205958984679963
sVfoot
p185
F4.416039291288292
sVbank
p186
F3.1293747711172424
sVeasily
p187
F4.296979931272303
sVerection
p188
F3.561868551613326
sValways
p189
F3.2872360303410364
sS'l'
p190
F2.906612244764777
sVexplode
p191
F4.309300415660344
sVaffiliate
p192
F3.517842302856836
sVinherent
p193
F3.726346345596434
sVside
p194
F4.149263903655824
sVmean
p195
F2.822824214361079
sVeveryone
p196
F3.8820360792095956
sVfinancial
p197
F3.3782432136698883
sVweight
p198
F3.8956048084156643
sVgeneration
p199
F4.4535144024548385
sVhouse
p200
F4.044079459835762
sVenergy
p201
F3.791884982215298
sVhard
p202
F3.5707138181282927
sVreduce
p203
F4.434601309148351
sVidea
p204
F4.507449041689785
sVcarry
p205
F4.151026018649224
sVtrading
p206
F3.964890462806186
sVexpect
p207
F3.076210212763681
sVlogo
p208
F3.940304987333571
sVoperation
p209
F3.7663516802101333
sVevent
p210
F3.2093116642835113
sVreally
p211
F3.768755527521528
sVtry
p212
F3.0075786347111406
sVnetwork
p213
F3.6562007362296742
sVp
p214
F2.8186274257344657
sVgod
p215
F4.404610595464669
sVsince
p216
F3.061271183815175
sVrx
p217
F4.292906605884668
sVpublish
p218
F4.192436075521034
sVresearch
p219
F3.782080982118677
sS'rd'
p220
F4.18511003542896
sVre
p221
F3.504818862970549
sVhealth
p222
F3.6223708717112695
sS'7'
p223
F2.5398259912217243
sVreader
p224
F3.664840098820382
sVmedicine
p225
F4.305176698476482
sVissue
p226
F3.5066690022587106
sVassist
p227
F3.9177051554163302
sVfriday
p228
F4.375493196893942
sVdiffer
p229
F3.399643207281823
sVfree
p230
F2.2755675305445218
sVstandard
p231
F4.077926365209619
sVreason
p232
F3.4300509554665384
sVbase
p233
F2.8033881559839595
sVimagine
p234
F4.222289038670715
sVput
p235
F3.6234109134066834
sVestimate
p236
F3.190912508109177
sVhand
p237
F3.9346069662189334
sVgenerate
p238
F4.073020386440764
sVrevolutionary
p239
F4.328070518342335
sVomit
p240
F4.373288124335628
sVamerican
p241
F3.978155211464669
sVw
p242
F3.0774150321865315
sVpurpose
p243
F3.6151207104862095
sVmajor
p244
F3.6724612571014545
sValready
p245
F3.6349233377823893
sVdont
p246
F4.420647594374486
sVfeel
p247
F3.2301602304050547
sVrelate
p248
F4.282795296280347
sVnumber
p249
F2.585206481982161
sVrank
p250
F4.34719968825133
sVanother
p251
F3.588642585218383
sVtel
p252
F3.999145487356505
sVmiss
p253
F3.946035662042556
sVstory
p254
F4.40916641200053
sVservice
p255
F2.1973356822749484
sVattach
p256
F4.301069916523828
sVtop
p257
F2.9738644717739446
sVleast
p258
F4.276777223954784
sVassumption
p259
F3.6867708023143524
sVstatement
p260
F3.16953560858862
sVhundred
p261
F3.3798732058808194
sVstore
p262
F3.4079974747516806
sVoption
p263
F3.964890462806186
sVrelationship
p264
F4.427600113689368
sVtool
p265
F3.923307410965
sVserve
p266
F4.313441208326376
sVimmediate
p267
F3.9605076946510906
sVprediction
p268
F3.809276724927167
sVpart
p269
F3.0143468500572794
sVword
p270
F2.9502328672406675
sVbelieve
p271
F2.8374161418982013
sVwhite
p272
F4.340782553930697
sVkind
p273
F3.2805668689047556
sVb
p274
F2.5782301364489077
sVtarget
p275
F3.2543262962522386
sVdouble
p276
F3.8398134487872486
sVanticipate
p277
F3.3220353057063763
sVinstruction
p278
F4.058445229637797
sVrate
p279
F3.3075146073145234
sVproject
p280
F3.0378234507336024
sVmatter
p281
F3.8398134487872486
sVhistorical
p282
F3.7603672218948927
sVacquisition
p283
F4.071390394229834
sVoutstanding
p284
F4.086156864346134
sVmind
p285
F3.8005430449584123
sVseem
p286
F4.427600113689368
sVseek
p287
F3.2917069766858034
sVsell
p288
F2.6261973681895086
sVspeculative
p289
F3.9946103321911135
sVreliance
p290
F4.1439961127209655
sValso
p291
F2.2221408011939197
sVcontact
p292
F2.5444139646833857
sVbuild
p293
F3.6296739818962456
sVblue
p294
F4.45590388985222
sVplay
p295
F3.549228616677506
sVacquire
p296
F3.696798741500477
sVthough
p297
F4.299022832902104
sVquote
p298
F4.126634565525064
sVreach
p299
F3.8320914026933384
sV75
p300
F4.005224533432886
sVregular
p301
F4.056838803589523
sVshareholder
p302
F4.1439961127209655
sVplan
p303
F3.069011621390152
sVletter
p304
F3.71830494672144
sV70
p305
F3.2608221689676835
sVnothing
p306
F3.4937893393950494
sVextremely
p307
F4.311368668724403
sVenroncom
p308
F3.7103276964407965
sVunderstands
p309
F3.97223803443658
sVmobile
p310
F3.510379581655246
sVmedical
p311
F3.7663516802101333
sVcover
p312
F4.052034951276878
sVenterprise
p313
F4.39781555233184
sVpease
p314
F4.429928403448959
sVmailing
p315
F3.452601780988435
sVmicrosoft
p316
F3.0389828711533373
sVreserve
p317
F3.589648115720402
sVsector
p318
F4.229893638055934
sVparticipate
p319
F4.494933233757955
sVfont
p320
F4.123198136026484
sVfind
p321
F2.493049926423993
sVimpact
p322
F4.404610595464669
sVaccess
p323
F3.09627777581449
sVsubmit
p324
F4.245278556895413
sVcopyright
p325
F4.294941194582456
sVviagra
p326
F2.78837763989774
sVrich
p327
F4.375493196893942
sVequity
p328
F4.256974596658605
sVannounce
p329
F3.481976389668339
sVyahoocom
p330
F3.4147315069330246
sVdo
p331
F3.891514823164139
sVhit
p332
F4.336527228360558
sV10
p333
F2.184913162276391
sVde
p334
F3.737947403779196
sVwatch
p335
F2.8959980435230035
sVinternational
p336
F3.1230456360655947
sVreport
p337
F2.736475050355546
sVdr
p338
F4.20911857548097
sV14
p339
F3.92190390196268
sVearn
p340
F3.571701472529565
sVremove
p341
F2.9117064992865203
sVpatch
p342
F4.45590388985222
sVbad
p343
F4.227987059785352
sVcommon
p344
F4.282795296280347
sVactivity
p345
F4.364516138262791
sVrelease
p346
F3.142797791449383
sS'x'
p347
F3.3352086848963607
sVset
p348
F3.2894690048453485
sVreference
p349
F3.733290817949245
sVmed
p350
F3.517842302856836
sVsex
p351
F3.5726901033565044
sVsee
p352
F2.2162636921604673
sVindividual
p353
F3.9052136675223013
sVsec
p354
F4.064896864919285
sVresult
p355
F2.5175409464322893
sVclose
p356
F3.7993015798703476
sVmaterially
p357
F3.6605110877307965
sS'best'
p358
F2.061276237867852
sVsubject
p359
F2.736903774906593
sVexpert
p360
F4.101144655311626
sVmovie
p361
F4.323868831488634
sVaway
p362
F3.779644927320796
sVcurrently
p363
F3.439529699421082
sVplease
p364
F1.68466176765134
sS'r'
p365
F2.8149116759878194
sVvarious
p366
F4.0488451559087775
sVnumerous
p367
F4.416039291288292
sVeurope
p368
F3.8901552036480997
sVaccord
p369
F4.050438781744055
sVmen
p370
F3.3564944708110915
sVrecently
p371
F4.0456655029913975
sVwo
p372
F4.165235849221877
sVattention
p373
F3.879344287543884
sVhowever
p374
F4.168820082449692
sVwi
p375
F3.999145487356505
sVnews
p376
F2.9193968729995357
sVimprove
p377
F4.128357218836511
sVc
p378
F2.5532965954800235
sVprescription
p379
F3.017180515880851
sVlicense
p380
F4.040914900232799
sVcountry
p381
F2.979314076541509
sVuncertainty
p382
F3.4403958753089308
sVforeign
p383
F4.156331070878917
sVstudio
p384
F3.535792713980679
sVexpense
p385
F3.944599911616452
sVapprove
p386
F3.6746494417820075
sVlos
p387
F4.497423895070407
sVpoint
p388
F3.98709714884033
sVsimple
p389
F4.3450560647080785
sVloan
p390
F4.301069916523828
sVothers
p391
F3.649769845899384
sV100mg
p392
F4.45590388985222
sVsimply
p393
F3.4291936900904196
sVtrust
p394
F4.011340760450323
sV100
p395
F2.6342914574744833
sVexpensive
p396
F4.309300415660344
sVpr
p397
F4.465519348551662
sVraise
p398
F4.008277970919777
sVbasis
p399
F4.342917026459329
sVcreate
p400
F3.481976389668339
sVacceptance
p401
F4.068138358843456
sVmicrocap
p402
F4.197966043530494
sVthree
p403
F3.161635633335464
sVstrategy
p404
F3.973714049464701
sVpc
p405
F4.086156864346134
sVsecret
p406
F4.256974596658605
sVmuch
p407
F2.9025554440691628
sVdreamweaver
p408
F3.841106273789554
sVtreatment
p409
F4.104506003014331
sVwebsite
p410
F2.9401984550808264
sVlife
p411
F2.9534226626087676
sVexcite
p412
F4.014412959487293
sVelse
p413
F4.342917026459329
sVfund
p414
F3.2224651941832545
sVunderstand
p415
F3.3044843019653443
sVrepresentative
p416
F3.5926707880469877
sVdemand
p417
F4.006750086741724
sVp0
p418
F4.268809054305607
sVlook
p419
F2.282893570636595
sVreliable
p420
F3.7906542128291654
sVbill
p421
F3.954693724785671
sVn
p422
F2.9614419517753876
sVnear
p423
F3.7639535975261205
sV7995
p424
F3.9417345801431654
sVerror
p425
F3.97223803443658
sVvoice
p426
F4.087811124442161
sVstudy
p427
F4.416039291288292
sVpack
p428
F3.5187790710752225
sVcongratulation
p429
F4.451130611099562
sVherein
p430
F3.4360724790372243
sVready
p431
F3.5677566942385486
sVmarch
p432
F4.131811453704598
sVpill
p433
F3.32589184731613
sVcredit
p434
F3.3839598482662714
sVmake
p435
F1.838089047968398
sVbig
p436
F3.2301602304050547
sS'9'
p437
F3.2322691942798754
sVadvise
p438
F3.5396131579780645
sVseveral
p439
F3.8820360792095956
sVconflict
p440
F3.7699596215863322
sVdevelopment
p441
F3.537701111506439
sVindependent
p442
F4.253060697337468
sValert
p443
F3.8820360792095956
sVwaterfall
p444
F4.268809054305607
sVuser
p445
F3.5463342586511417
sVopportunity
p446
F3.279828589063175
sVrecent
p447
F3.733290817949245
sVdatabase
p448
F3.973714049464701
sVperson
p449
F3.733290817949245
sVclient
p450
F3.755605308134649
sVtelephone
p451
F4.087811124442161
sVorganization
p452
F4.101144655311626
sVcorporate
p453
F3.888797430187639
sVspend
p454
F3.7544183643751206
sVknow
p455
F2.3348750962970097
sVprotocol
p456
F4.422959734132865
sVphoto
p457
F4.362335112316431
sVdistribute
p458
F4.128357218836511
sVcompetitive
p459
F4.40234044693013
sVidentify
p460
F3.1949720536030557
sVthanks
p461
F2.967363907170851
sVimmediately
p462
F3.858066889096599
sVlove
p463
F3.4774698475664483
sVyes
p464
F4.400075440299278
sVyet
p465
F4.26484865308951
sVprojection
p466
F3.68345037867705
sVprofitable
p467
F4.4535144024548385
sVshoud
p468
F4.45590388985222
sVfamily
p469
F3.6812428722618393
sVpharmacy
p470
F4.296979931272303
sVsource
p471
F3.2379149396924483
sVboard
p472
F4.112959138725389
sVeasy
p473
F2.973321141143898
sVsave
p474
F2.5321093622605795
sVwil
p475
F4.140499605662236
sVmaya
p476
F4.446380008340964
sVformat
p477
F4.1439961127209655
sVvanessa
p478
F4.229893638055934
sV6995
p479
F4.2394814392110876
sVunlimited
p480
F4.3259674681455556
sVpossible
p481
F3.3166610125405995
sVgame
p482
F4.154559591230535
sVdiscreet
p483
F3.936028430566311
sVunique
p484
F3.953245498609306
sV17995
p485
F4.08946812564979
sVd
p486
F3.7356164003927206
sVgift
p487
F4.38213773961261
sVmessage
p488
F2.086017946142995
sV50
p489
F3.1895629802390437
sS'52'
p490
F4.4068859093018045
sVspecific
p491
F4.126634565525064
sVcontinue
p492
F3.3166610125405995
sVofficer
p493
F3.809276724927167
sVnight
p494
F3.9915982817211217
sVpopular
p495
F3.4013084866008843
sVsecurity
p496
F2.5476026299183503
sVyou20
p497
F4.066516298471588
sVright
p498
F2.5800613034136233
sVold
p499
F3.9093601834841496
sVdeal
p500
F3.3359890204802416
sVpeople
p501
F2.8307998606737197
sVsoma
p502
F4.364516138262791
sVback
p503
F3.007016679090845
sVoffer
p504
F1.9185682272127413
sVeconomic
p505
F4.3688925128625895
sVexamples
p506
F4.190599527713732
sVdear
p507
F2.992515588400045
sVpain
p508
F3.7980616541070273
sVnewsletter
p509
F3.219681615489608
sV9995
p510
F3.940304987333571
sVfor20
p511
F4.416039291288292
sVbottom
p512
F4.280785245352323
sVnotification
p513
F4.07465303986465
sVdecision
p514
F4.357987279380327
sVshall
p515
F3.4658470077384553
sVper
p516
F2.6510723390568116
sVcreative
p517
F3.2521703485971702
sVeverything
p518
F3.947473476812184
sVrun
p519
F3.7171614360193614
sV300
p520
F4.14574896154838
sVmarketing
p521
F2.96466776102427
sVagreement
p522
F3.879344287543884
sVdiscount
p523
F3.5786425018837997
sVstep
p524
F4.052034951276878
sVcorp
p525
F4.432262126795179
sS'br'
p526
F3.7194497665373736
sVsuper
p527
F3.9961197664399677
sVvalium
p528
F4.303121199294386
sVanything
p529
F4.14574896154838
sS'v'
p530
F3.155751340449774
sS'o'
p531
F4.241410080117493
sVrange
p532
F3.6007762022298095
sVensure
p533
F4.2147418330353315
sVautomatically
p534
F4.309300415660344
sVsignificant
p535
F4.3217745898855195
sVwithin
p536
F2.658181373735918
sVtwo
p537
F2.7942640050943504
sVbankruptcy
p538
F4.355820431295237
sVspam
p539
F4.235635280623609
sVsupport
p540
F3.1801669379573476
sVquestion
p541
F3.5085225709080334
sVlong
p542
F2.739479989298366
sVway
p543
F2.376163349814647
sVforwardlooking
p544
F3.7567936624040277
sVcall
p545
F2.9722353647071524
sVtherefore
p546
F3.9900956518365867
sVhead
p547
F3.7627567092922742
sVmedium
p548
F3.61925722103799
sVform
p549
F3.0648362499796713
sVdiligence
p550
F4.307236431439493
sVfireworks
p551
F4.019039027876075
sVhear
p552
F3.9205023600373914
sVline
p553
F3.2894690048453485
sVinfo
p554
F3.537701111506439
sVus
p555
F3.312839838613276
sVwindows
p556
F4.393311040210736
sVsum
p557
F3.8067735947090484
sS'z'
p558
F4.091127877068155
sVsimilar
p559
F3.868648998427136
sVclear
p560
F4.328070518342335
sV150
p561
F4.102823916831346
sVlater
p562
F4.053633672640574
sS'm'
p563
F2.9657453473354405
sVproven
p564
F3.9751922463340117
sVdrive
p565
F3.4517249725149
sVexist
p566
F4.005224533432886
sVaccounting
p567
F4.311368668724403
sVship
p568
F3.092599046957028
sVdealer
p569
F4.03933636793975
sS'nj'
p570
F4.147504888250645
sVsolicitation
p571
F2.8033881559839595
sS'na'
p572
F4.188766346632071
sS'application'
p573
F3.7035403400673963
sVinterested
p574
F3.2065644098083723
sVgra
p575
F4.467937729415943
sVdepartment
p576
F3.552131376335468
sVnt
p577
F2.167048989670076
sVnice
p578
F4.0221350055812035
sVpicture
p579
F4.176027320854641
sVdraw
p580
F3.266631916609005
sVintend
p581
F3.3749911782835107
sVwelcome
p582
F4.290876148334286
sVupdate
p583
F3.687880064768638
sVintent
p584
F4.241410080117493
sVprofessional
p585
F2.5529397712121877
sVbillion
p586
F4.2241847738356135
sVe
p587
F2.416424963261117
sVlonger
p588
F4.233717734494337
sVdvd
p589
F4.393311040210736
sVage
p590
F3.9317700848837336
sVtogether
p591
F4.276777223954784
sV8995
p592
F4.0221350055812035
sV2002
p593
F3.7508659627707526
sV2003
p594
F3.167554756174659
sV2000
p595
F4.08946812564979
sV2001
p596
F3.9038353075521797
sV2004
p597
F2.8312710032030473
sV2005
p598
F2.5989332788566233
sVinc
p599
F2.8835072490984683
sVhello
p600
F3.092599046957028
sVcode
p601
F3.791884982215298
sVdoctor
p602
F3.713738728741859
sVglobal
p603
F4.24721842171324
sVfocus
p604
F3.944599911616452
sVmanager
p605
F3.7228921107283464
sVgo
p606
F1.8555206012432397
sVzone
p607
F4.451130611099562
sVflash
p608
F3.4172685061796138
sVyoung
p609
F4.2491620569218105
sVsend
p610
F2.2483658533877273
sV0
p611
F3.5608905564253495
sVcharge
p612
F3.7663516802101333
sVcompensate
p613
F4.197966043530494
sVsuite
p614
F3.1268383081213336
sVinclude
p615
F2.179741373873997
sVsent
p616
F4.296979931272303
sVingredient
p617
F4.411452127281386
sVpresently
p618
F3.7943510747104914
sVadvantage
p619
F3.6130588540856508
sVchoice
p620
F3.9121341103668748
sV1995
p621
F3.859383544981346
sVminute
p622
F3.447352425102291
sVentire
p623
F4.012875680168407
sVlevel
p624
F3.8942396204903242
sVharbor
p625
F4.379917982874297
sVdie
p626
F4.053633672640574
sVleave
p627
F3.3669070598835518
sVitem
p628
F3.8607019367346043
sVteam
p629
F3.4534793589297936
sVquick
p630
F3.6768424251170173
sVdiscover
p631
F4.1078786874929705
sVsign
p632
F3.6058756523421587
sVcost
p633
F3.1186389559726475
sVvideo
p634
F3.858066889096599
sVdownload
p635
F3.8282526263861727
sS'\x1b'
p636
F4.161664416854279
sVclick
p637
F2.2680264228977176
sVbusiness
p638
F2.293846582655792
sVassistance
p639
F3.7943510747104914
sVavailability
p640
F4.104506003014331
sVcurrent
p641
F3.0025323666435164
sVcapital
p642
F4.2491620569218105
sVreply
p643
F2.951295002231651
sVboost
p644
F3.62133191057885
sV3d
p645
F4.404610595464669
sVbody
p646
F3.3644945134781676
sVexchange
p647
F3.2435927406091296
sVlearn
p648
F3.3979806965082093
sVcommercial
p649
F4.025240598139357
sVbroker
p650
F4.121484339548749
sVlet
p651
F3.162947969481814
sVaddress
p652
F2.668540032097203
sValone
p653
F4.375493196893942
sValong
p654
F4.364516138262791
sVchange
p655
F2.6447953470857892
sVwait
p656
F3.521594652475386
sVbox
p657
F3.3509322792758174
sVgreat
p658
F2.812133896423917
sVreceive
p659
F2.2672218097391146
sS'32'
p660
F4.315518052271215
sV30
p661
F3.3113154480741795
sV36
p662
F3.6296739818962456
sV35
p663
F4.307236431439493
sVexample
p664
F3.4561167230958794
sVopinion
p665
F3.74379879554766
sVemerge
p666
F4.023686596272622
sVforesee
p667
F3.9024588448434567
sVextra
p668
F4.315518052271215
sVwin
p669
F3.964890462806186
sVmanage
p670
F3.9856012622487476
sVprefer
p671
F4.290876148334286
sVprivate
p672
F3.0858896591775036
sVsincerely
p673
F3.4774698475664483
sVverge
p674
F4.416039291288292
sVapply
p675
F4.002180391051659
sVmarket
p676
F2.897507477771858
sVuse
p677
F2.0290707924707276
sVfee
p678
F3.650838793088289
sVusa
p679
F3.837232802193757
sVprove
p680
F4.338652627672872
sVpositive
p681
F3.74379879554766
sVvisit
p682
F2.2957757550882008
sVnext
p683
F2.835994677550824
sVlive
p684
F3.3509322792758174
sVcamera
p685
F4.446380008340964
sVtoday
p686
F2.477711179544291
sVfactor
p687
F3.841106273789554
sVagent
p688
F4.116360502548879
sS'8'
p689
F3.2189869298069294
sVpenis
p690
F4.332289933885043
sVeffort
p691
F3.5657901252665076
sVcustomer
p692
F2.559023168037225
sVaccount
p693
F2.890982987876576
sVgraphic
p694
F3.6151207104862095
sVf
p695
F3.225256542820525
sVcar
p696
F4.288849805189053
sVanywhere
p697
F4.504933317092538
sVachieve
p698
F4.147504888250645
sVmeet
p699
F3.3831411826454354
sVcontrol
p700
F3.5677566942385486
sVheart
p701
F4.475228162678622
sVstream
p702
F4.142246330997178
sVprocess
p703
F3.1544484086693583
sVdecember
p704
F3.9678230162274635
sVawesome
p705
F4.377703142544744
sVtax
p706
F3.888797430187639
sVimageready
p707
F3.97223803443658
sVpromotional
p708
F4.168820082449692
sVhigh
p709
F2.752461564937519
sVsomething
p710
F4.313441208326376
sS'tab'
p711
F3.6746494417820075
sVblvd
p712
F4.276777223954784
sVserial
p713
F4.463106802146277
sVoccur
p714
F3.559913516777523
sVpink
p715
F4.315518052271215
sVunited
p716
F3.3636916230295775
sVsit
p717
F3.786970967412869
sVdiscussion
p718
F3.6901022879053555
sVsix
p719
F3.8780011039974163
sVdelay
p720
F4.241410080117493
sVplus
p721
F4.061665844337838
sVstock
p722
F2.804763987432356
sVprofile
p723
F3.27541031972551
sVproduct
p724
F2.079108300910298
sVexpress
p725
F3.290214439095297
sVinformation
p726
F2.005889217703993
sVmay
p727
F2.131547941736945
sVstop
p728
F2.6802219373516976
sVlucky
p729
F4.434601309148351
sVmembership
p730
F4.020585818594374
sVproduce
p731
F3.7808622129245477
sVdate
p732
F3.037244244230297
sVdata
p733
F3.6945616041021205
sVgrow
p734
F3.5472981141474484
sVman
p735
F3.216213002924204
sVnatural
p736
F3.753232827781019
sVremember
p737
F3.5187790710752225
sV80
p738
F3.3352086848963607
sVlight
p739
F4.472792107880741
sVst
p740
F4.019039027876075
sS'q'
p741
F4.002180391051659
sVinform
p742
F3.862022068939527
sVdeposit
p743
F3.813043207722644
sVallow
p744
F3.6079227359638835
sVse
p745
F4.192436075521034
sVexclusive
p746
F4.190599527713732
sVmove
p747
F3.2407498104782957
sV095
p748
F3.982616185405294
sVcourse
p749
F4.371087903426026
sVnbsp
p750
F4.167026359995665
sVstill
p751
F3.4543577076906997
sVperfect
p752
F3.687880064768638
sV1
p753
F1.9664223936963778
sVle
p754
F4.386592089961991
sVgroup
p755
F3.588642585218383
sVthank
p756
F3.0512386417142876
sVla
p757
F4.037760323484284
sS'll'
p758
F3.250019039054658
sVwindow
p759
F3.0430514614795
sVchoose
p760
F3.2651763122763042
sVconstitutes
p761
F4.366701931482771
sVpolicy
p762
F4.053633672640574
sVmail
p763
F2.4580513064969147
sVmain
p764
F3.588642585218383
sVfinance
p765
F4.042495928230118
sVmaterial
p766
F3.2984511011611763
sVintroduce
p767
F4.391066370356912
sV21b
p768
F3.883384697080889
sVmention
p769
F3.71830494672144
sVhalf
p770
F3.7298125535729203
sVinvestor
p771
F3.315895608752754
sVday
p772
F2.1578746133940347
sVterm
p773
F3.1319176841213547
sVname
p774
F2.638946237019466
sV14995
p775
F3.944599911616452
sVjanuary
p776
F4.307236431439493
sVed
p777
F4.502423905487112
sVreceipt
p778
F4.276777223954784
sVconstitute
p779
F4.448752488694595
sVmeasure
p780
F4.338652627672872
sS'et'
p781
F4.485032162775243
sVgirl
p782
F4.044079459835762
sVsexual
p783
F3.9856012622487476
sVspecial
p784
F2.4355928713992063
sVcanada
p785
F3.6990408949061666
sVentertainment
p786
F3.999145487356505
sVprofit
p787
F3.6540525076913846
sVdevelop
p788
F3.3493487476701733
sVincrease
p789
F2.8066013788541917
sVinternet
p790
F3.1123771947486714
sVformula
p791
F4.288849805189053
sVcause
p792
F3.0518260132436565
sVred
p793
F4.069763054570458
sVdisclose
p794
F4.342917026459329
sVstate
p795
F2.6912222519840157
sVmillion
p796
F2.5866814085032295
sVquark
p797
F4.504933317092538
sV12995
p798
F3.9590510301546264
sVadvisor
p799
F3.573679712541671
sVobligation
p800
F4.4535144024548385
sVcard
p801
F4.009808193100545
sVcare
p802
F3.999145487356505
sVadvance
p803
F3.9707641948182797
sVg
p804
F3.0672200413349473
sVrule
p805
F4.272785202685247
sVcould
p806
F2.673357383846247
sVkeep
p807
F3.061864479590514
sVthing
p808
F3.170858360104236
sVgetresponse
p809
F4.284809395652048
sVplace
p810
F2.7094120879425914
sVmassive
p811
F4.379917982874297
sVltd
p812
F4.509971111122495
sVpromotion
p813
F3.879344287543884
sVretail
p814
F3.491962854869015
sVthink
p815
F3.3220353057063763
sVsouth
p816
F3.4543577076906997
sV1000
p817
F4.266826893101616
sVsaving
p818
F4.4440131433306975
sVrevenue
p819
F3.589648115720402
sVpowerful
p820
F4.255015732173272
sVone
p821
F1.7963807296446699
sVfast
p822
F3.2093116642835113
sVdirectly
p823
F3.8502031526363845
sVowner
p824
F3.837232802193757
sVxp
p825
F3.0541789555056833
sVopen
p826
F3.5967152829434945
sVsize
p827
F3.6779407228660803
sVcity
p828
F3.6583535895907753
sVlittle
p829
F3.3151307903598317
sVmanagement
p830
F3.3839598482662714
sVsheet
p831
F4.174220635629692
sVpublication
p832
F3.988595276461352
sVquality
p833
F3.1701967656374976
sVprivacy
p834
F3.8385222930236287
sVsystem
p835
F2.6269654173824106
sVanyone
p836
F4.268809054305607
sVindicate
p837
F3.3282129315303335
sS'2'
p838
F1.9516481665258438
sVto20
p839
F4.097794568426345
sVnorton
p840
F4.45590388985222
sVfinal
p841
F4.497423895070407
sVfriend
p842
F3.5263049767755694
sVexactly
p843
F4.301069916523828
sVforward
p844
F2.9886471116221247
sVunsubscribe
p845
F3.3798732058808194
sVjuly
p846
F4.165235849221877
sVcopy
p847
F3.9707641948182797
sV11
p848
F3.431767694085593
sVwide
p849
F3.6444421827915963
sV13
p850
F4.2628743187857925
sV12
p851
F3.339899858472241
sV15
p852
F3.208624142771383
sVthird
p853
F3.2336776452169333
sV17
p854
F3.7603672218948927
sV16
p855
F4.086156864346134
sV19
p856
F4.222289038670715
sV18
p857
F3.7980616541070273
sVrequire
p858
F2.8785542919696194
sVclaim
p859
F3.549228616677506
sVcompensation
p860
F3.999145487356505
sVfuture
p861
F2.4704576033953995
sVhappy
p862
F3.8042767145104612
sVprospect
p863
F4.475228162678622
sVetcand
p864
F4.03933636793975
sVpro
p865
F3.788197209136113
sVsay
p866
F2.7594546004284894
sVneed
p867
F2.0217031136317902
sVoffering
p868
F4.286827559808286
sVmin
p869
F4.317599218475039
sVagency
p870
F4.280785245352323
sVable
p871
F3.5150372519292272
sVnote
p872
F3.1105062868128597
sVmix
p873
F3.869979670612841
sVpotential
p874
F3.5926707880469877
sVtake
p875
F1.9518437272969766
sVonline
p876
F2.4189179530222056
sVobjective
p877
F3.573679712541671
sVperformance
p878
F3.2224651941832545
sVaccuracy
p879
F3.7833012385239067
sVworldwide
p880
F3.4534793589297936
sV200
p881
F4.031480867999441
sVbegin
p882
F3.5796380221253012
sVsure
p883
F3.784522985774229
sVmultiple
p884
F3.8206190015311017
sS'normal'
p885
F3.7579834305396167
sVtrack
p886
F4.101144655311626
sVprice
p887
F1.703554493118216
sVdevice
p888
F4.395560759944751
sVamerica
p889
F3.591662215092103
sVpayment
p890
F3.788197209136113
sVdelivery
p891
F3.774790548855998
sVaverage
p892
F3.879344287543884
sVgather
p893
F4.118065532799963
sVrequest
p894
F3.3798732058808194
sVsale
p895
F2.7861228475106508
sVface
p896
F4.336527228360558
sVtalk
p897
F3.665925286121669
sVlink
p898
F2.782076988991107
sVfiling
p899
F4.154559591230535
sVfact
p900
F3.0913758052142835
sVshop
p901
F3.6296739818962456
sVselection
p902
F4.4440131433306975
sVshow
p903
F3.141511617638639
sVtext
p904
F3.9946103321911135
sVcheap
p905
F3.3097933777651107
sVbring
p906
F3.2673605140911453
sVaggressive
p907
F4.138755926057409
sVstaff
p908
F4.2628743187857925
sVlitigation
p909
F3.9431662196146036
sVknowledge
p910
F4.436945976107605
sV6000
p911
F4.411452127281386
sVtitle
p912
F3.4215111939184037
sVwinner
p913
F4.34719968825133
sVbehind
p914
F4.260903874798494
sVjan
p915
F4.439296153452559
sVlocal
p916
F4.18511003542896
sVhope
p917
F3.725193607716626
sVfirst
p918
F2.8830108479961924
sVhandle
p919
F4.404610595464669
sVget
p920
F1.5805297349717256
sVexpectation
p921
F3.647635373370751
sV120
p922
F4.077926365209619
sVresource
p923
F4.220396890518677
sS'h'
p924
F3.279828589063175
sVmorning
p925
F4.3217745898855195
sVcontain
p926
F3.255766181310226
sVview
p927
F3.1583623079904948
sVavailable
p928
F2.708161306040939
sVrequirement
p929
F4.0221350055812035
sVofficial
p930
F3.97223803443658
sVnational
p931
F3.8607019367346043
sVedition
p932
F4.066516298471588
sVcomputer
p933
F3.3693254407478332
sVconcern
p934
F3.7993015798703476
sVwire
p935
F4.371087903426026
sVmortgage
p936
F4.507449041689785
sVreform
p937
F3.8847351361787603
sVfederal
p938
F3.9052136675223013
sVreview
p939
F3.346978142055837
sV3
p940
F2.293571290155774
sVneither
p941
F4.251109477206207
sVemail
p942
F1.5354212041461013
sVnotice
p943
F3.035508634885151
sVability
p944
F3.6615915848645506
sVscreen
p945
F4.243342447868547
sVdeliver
p946
F3.791884982215298
sVkey
p947
F3.777214792467504
sVapproval
p948
F4.227987059785352
sVcome
p949
F2.5691242640237286
sVproblem
p950
F3.5187790710752225
sVinstant
p951
F4.3259674681455556
sS'22'
p952
F4.280785245352323
sVmany
p953
F2.394263391458265
sVregion
p954
F4.425277232273228
sVdrug
p955
F3.4738791794357198
sVagree
p956
F4.303121199294386
sVapril
p957
F4.429928403448959
sVs
p958
F1.5754160110033708
sVamong
p959
F3.7906542128291654
sVco
p960
F4.133543055868876
sVcolor
p961
F4.280785245352323
sVca
p962
F3.103057462799869
sVbsp
p963
F4.507449041689785
sVperiod
p964
F4.384362434634721
sVce
p965
F4.384362434634721
sVcd
p966
F3.561868551613326
sV60
p967
F3.0002977288421
sVmedication
p968
F4.005224533432886
sVrespect
p969
F3.3220353057063763
sVaddition
p970
F4.475228162678622
sVwest
p971
F4.2147418330353315
sVtrademark
p972
F4.375493196893942
sVmark
p973
F4.427600113689368
sVsubscriber
p974
F3.591662215092103
sVtreat
p975
F4.13008284480398
sV500
p976
F3.655126045099909
sVengine
p977
F4.342917026459329
sVenable
p978
F4.138755926057409
sVthousand
p979
F2.7762617187448706
sVotc
p980
F4.1724172086305416
sVprotect
p981
F4.227987059785352
sVantivirus
p982
F4.436945976107605
sVlast
p983
F2.8186274257344657
sVpresent
p984
F3.765151920018229
sVcase
p985
F3.7993015798703476
sVfactual
p986
F4.235635280623609
sVcash
p987
F3.399643207281823
sVvalue
p988
F3.2688193035548054
sV1451
p989
F4.284809395652048
sVpertain
p990
F3.879344287543884
sVforce
p991
F4.342917026459329
sVannual
p992
F4.404610595464669
sVve
p993
F3.3815058593047045
sValmost
p994
F4.207251161306174
sVvi
p995
F4.009808193100545
sVsite
p996
F2.346996456829354
sVgood
p997
F2.559023168037225
sVcontract
p998
F3.9024588448434567
sVpartner
p999
F3.4928756801263745
sVtechnology
p1000
F3.104295086720219
sVdifferent
p1001
F4.2035267622151915
sVparticipant
p1002
F4.4440131433306975
sVetc
p1003
F3.2710114856530264
sVgeneric
p1004
F3.6317704187227737
sVpay
p1005
F2.6273496633045252
sVcheck
p1006
F2.801099301700208
sVmember
p1007
F3.3151307903598317
sVceo
p1008
F4.092790387841768
sVconsumer
p1009
F4.047254065676535
sVhtml
p1010
F4.124914874645538
sVinch
p1011
F4.205387227868111
sVparty
p1012
F3.092599046957028
sVdocument
p1013
F4.151026018649224
sVweek
p1014
F2.8242270670578282
sVoil
p1015
F4.2035267622151915
sVhttp
p1016
F0.9510939307698456
sVpremiere
p1017
F3.491962854869015
sVdrink
p1018
F4.319684724966061
sVupon
p1019
F3.6286274093255746
sVeffect
p1020
F3.3782432136698883
sVdirector
p1021
F3.5967152829434945
sVadvertisement
p1022
F2.815375390348088
sVexpand
p1023
F4.002180391051659
sVtransaction
p1024
F3.533887951500025
sVcenter
p1025
F3.5396131579780645
sVfully
p1026
F4.299022832902104
sVwhole
p1027
F4.364516138262791
sVwell
p1028
F2.7625294985244326
sVwithout
p1029
F2.764731657529333
sVrelief
p1030
F4.092790387841768
sVcialis
p1031
F3.211377069492788
sVmodel
p1032
F4.451130611099562
sV210
p1033
F4.463106802146277
sVless
p1034
F3.2175990045320817
sVmoney
p1035
F2.3616208765828044
sVexecutive
p1036
F4.319684724966061
sVrest
p1037
F4.467937729415943
sVdose
p1038
F3.7544183643751206
sVanticipates
p1039
F4.233717734494337
sVweb
p1040
F3.0660274353498242
sVdeath
p1041
F4.4068859093018045
sVsupply
p1042
F3.5367464574959886
sVsmith
p1043
F4.068138358843456
sVadd
p1044
F3.6048536798464657
sVvalid
p1045
F4.056838803589523
sV4
p1046
F2.736475050355546
sVtuesday
p1047
F4.4899704444158255
sVmatch
p1048
F4.451130611099562
sVreal
p1049
F3.232973171781669
sVaround
p1050
F3.8206190015311017
sVgovernment
p1051
F3.6380862291908977
sVread
p1052
F3.282784984416777
sVdigital
p1053
F4.296979931272303
sVearly
p1054
F4.055234954007548
sVtest
p1055
F4.137015281579625
sVfive
p1056
F3.724042197111584
sVpreference
p1057
F4.121484339548749
sVpress
p1058
F3.4122009277673078
sVworld
p1059
F2.588897885214121
sVloss
p1060
F3.7286558154450966
sVnecessary
p1061
F3.486503332664116
sVlike
p1062
F2.17851392803436
sVsuccess
p1063
F3.7639535975261205
sVserver
p1064
F4.026797018687015
sVbenefit
p1065
F3.564808289154251
sVeither
p1066
F4.112959138725389
sVlose
p1067
F3.225955599123023
sVbecome
p1068
F3.1861971069839385
sVsoft
p1069
F3.1748371451939996
sVpage
p1070
F3.704668371771895
sVtherein
p1071
F4.39781555233184
sVinterest
p1072
F2.9323470669335925
sVmacromedia
p1073
F3.4543577076906997
sVgrowth
p1074
F3.3749911782835107
sVexport
p1075
F4.364516138262791
sVtable
p1076
F4.09445566716083
sVhome
p1077
F3.0217311494448476
sVcompetitor
p1078
F3.92190390196268
sVlead
p1079
F3.559913516777523
sVconfirm
p1080
F4.047254065676535
sVavoid
p1081
F4.08946812564979
sVlegal
p1082
F3.8143018611298403
sVprovider
p1083
F3.946035662042556
sVleader
p1084
F4.309300415660344
sVthe20
p1085
F4.507449041689785
sVlocate
p1086
F4.154559591230535
sVpower
p1087
F3.515971394921024
sVpoise
p1088
F4.395560759944751
sV1933
p1089
F3.643380047800613
sVhost
p1090
F4.126634565525064
sV1934
p1091
F3.6444421827915963
sVmanufacturer
p1092
F3.85675196451529
sVactual
p1093
F3.449973658582165
sVpackage
p1094
F3.6286274093255746
sVindustry
p1095
F3.3059983067965595
sVlocation
p1096
F4.251109477206207
sVshipping
p1097
F3.7544183643751206
sVstand
p1098
F3.733290817949245
sVact
p1099
F2.6641444206241647
sVtongue
p1100
F4.4535144024548385
sVroad
p1101
F4.353658268290742
sVsoftware
p1102
F2.531760017278861
sVcommunication
p1103
F3.854127291092519
sVimage
p1104
F4.006750086741724
sVyear
p1105
F2.3755656211656495
sVdue
p1106
F2.929223691151324
sVadobe
p1107
F3.1774984907435138
sVquickly
p1108
F3.9503553231870727
sVadditional
p1109
F3.35410688511659
sVarea
p1110
F3.2894690048453485
sVtransfer
p1111
F3.8105306435867607
sVhey
p1112
F4.309300415660344
sVstart
p1113
F2.734334180344962
sVlow
p1114
F2.610958978084576
sVlot
p1115
F3.4801713350266086
sVago
p1116
F4.323868831488634
sVbuy
p1117
F2.808442152498684
sVnorth
p1118
F3.92190390196268
sVcomplete
p1119
F2.9975114355934167
sVenough
p1120
F3.964890462806186
sVbrand
p1121
F3.3612868122513984
sVregard
p1122
F2.4648883834315636
sVvolume
p1123
F4.303121199294386
sVhi
p1124
F3.366102230866265
sVgain
p1125
F3.688990559052665
sVpromote
p1126
F4.391066370356912
sVillustrator
p1127
F3.7228921107283464
sVwish
p1128
F2.8322139547109177
sS'j'
p1129
F3.3823231866898036
sVrecord
p1130
F3.7275004138145404
sVlimit
p1131
F3.4147315069330246
sVdistribution
p1132
F4.1724172086305416
sVbeliefs
p1133
F3.9575964844436324
sVfirm
p1134
F4.222289038670715
sVad
p1135
F4.4825721369343805
sVcertain
p1136
F3.3352086848963607
sVpenny
p1137
F3.979639992732248
sVal
p1138
F3.4257719587792583
sVgeneral
p1139
F3.862022068939527
sVdaily
p1140
F4.465519348551662
sVfile
p1141
F3.3685186637778934
sVtadalafil
p1142
F4.005224533432886
sVhappen
p1143
F3.938877435342386
sVfill
p1144
F3.867320094577082
sVcompleteness
p1145
F4.26484865308951
sV48
p1146
F4.015952605672886
sVcorporation
p1147
F3.888797430187639
sV45
p1148
F4.119773475145119
sVpercent
p1149
F4.388826727763407
sVdetail
p1150
F2.810286320840617
sV40
p1151
F3.7012880868630713
sVfield
p1152
F4.256974596658605
sVbook
p1153
F3.8244285299477694
sS'5'
p1154
F2.3343015373481055
sVcategory
p1155
F4.102823916831346
sVstar
p1156
F4.448752488694595
sVmonday
p1157
F4.231803858312053
sVxanax
p1158
F4.08946812564979
sVgas
p1159
F4.20911857548097
sVsymbol
p1160
F3.8449948075292464
sVtime
p1161
F1.653123639491324
sVjune
p1162
F3.721743345524473
sVstay
p1163
F4.186936519954995
sVchance
p1164
F3.9946103321911135
sVimportant
p1165
F3.6812428722618393
sVcorel
p1166
F3.2386229043237886
sVwife
p1167
F4.1998161828186555
sVinvest
p1168
F3.1067749392000015
sVwebsites
p1169
F4.101144655311626
sVwrite
p1170
F3.3282129315303335
sVu
p1171
F1.627628130772735
sVoriginal
p1172
F3.869979670612841
s.