(dp0
Vstatement historical fact may
p1
F3.9751922463340117
sVmx 2004 include dreamweaver
p2
F4.036186759036854
sVwindow xp professional include
p3
F4.03933636793975
sVadobe macromedia corel etc
p4
F4.042495928230118
sVstatement action may identify
p5
F3.9275297958448485
sVadobe photoshop 7 adobe
p6
F4.033047039032186
sVcertain action may could
p7
F4.014412959487293
sVidentify use word project
p8
F3.97223803443658
sVmay could might occur
p9
F4.019039027876075
sVwithin mean section 27a
p10
F3.888797430187639
sVmacromedia studio mx 2004
p11
F3.7627567092922742
sVstatement within mean section
p12
F3.815562100742128
sVrisk uncertainty could cause
p13
F3.9205023600373914
sVinformation provide investment advice
p14
F3.9663556645335136
sVstudio mx 2004 include
p15
F4.036186759036854
sVproduct microsoft adobe macromedia
p16
F4.042495928230118
sVexpectation estimate projection time
p17
F3.9177051554163302
sVprojection time statement make
p18
F3.953245498609306
sVpremiere 7 adobe illustrator
p19
F4.023686596272622
sVprofessional office xp professional
p20
F3.9856012622487476
sVinclude service pack 2
p21
F4.0456655029913975
sV7 adobe illustrator 10
p22
F4.028355865456306
sV7 adobe premiere 7
p23
F4.033047039032186
sVsecurity must understand information
p24
F3.9346069662189334
sVadobe acrobat 60 professional
p25
F3.978155211464669
sVassumption future event performance
p26
F3.938877435342386
sV80cs include imageready c
p27
F4.0456655029913975
sVmean section 27a security
p28
F3.879344287543884
sVadobe illustrator 10 main
p29
F4.0456655029913975
sVact 1934 statement express
p30
F3.9900956518365867
sVaction may could might
p31
F4.014412959487293
sVmx flash mx fireworks
p32
F4.044079459835762
sVmicrosoft adobe macromedia corel
p33
F4.03933636793975
sVstatement indicate certain action
p34
F3.826976302026568
sVfuture event performance statement
p35
F3.961966484114751
sV21b security exchange act
p36
F4.037760323484284
sVxp professional include service
p37
F4.03933636793975
sVsecurity representative decide trade
p38
F3.938877435342386
sVflash mx fireworks mx
p39
F4.037760323484284
sVadobe macromedia corel etcand
p40
F4.03933636793975
sV10 main product microsoft
p41
F4.0456655029913975
sVadobe premiere 7 adobe
p42
F4.031480867999441
sVmust understand information provide
p43
F3.9346069662189334
sVaction may identify use
p44
F3.9517993667593063
sVexchange act 1934 statement
p45
F3.9093601834841496
sVemail message advertisement andor
p46
F3.2287567214027346
sVword project foresee expect
p47
F3.936028430566311
sVxp professional office xp
p48
F3.98709714884033
sVmessage advertisement andor solicitation
p49
F3.2287567214027346
sVphotoshop 80cs include imageready
p50
F4.0456655029913975
sVsecurity exchange act 1934
p51
F3.755605308134649
sVuse word project foresee
p52
F3.9692925242068235
sVsecurity litigation reform act
p53
F3.97223803443658
sVsection 27a security act
p54
F3.873982344402499
sVprivate security litigation reform
p55
F3.9707641948182797
sVconstrue kind investment advice
p56
F3.9303546564804033
sVdreamweaver mx flash mx
p57
F4.044079459835762
sVunderstand information provide investment
p58
F3.97223803443658
sVlitigation reform act 1995
p59
F3.9900956518365867
sV27a security act 1933
p60
F3.85150948855044
sVillustrator 10 main product
p61
F4.0456655029913975
sV2004 include dreamweaver mx
p62
F4.036186759036854
sVwindow xp professional office
p63
F4.029917146023259
sVmain product microsoft adobe
p64
F4.042495928230118
sVmicrosoft office 2003 professional
p65
F3.9663556645335136
sVsecurity act 1933 section
p66
F3.859383544981346
sVestimate projection time statement
p67
F3.923307410965
sVadobe photoshop 80cs include
p68
F4.03933636793975
sVsubscriber seek advice register
p69
F3.9707641948182797
sVphotoshop 7 adobe premiere
p70
F4.033047039032186
sVmay identify use word
p71
F3.9489133618701713
sVreader subscriber seek advice
p72
F3.9678230162274635
sVstatement base expectation estimate
p73
F3.9121341103668748
sVprofessional include service pack
p74
F4.0456655029913975
sVindicate certain action may
p75
F3.818087354609322
sVact 1933 section 21b
p76
F3.907976100218211
sVbase expectation estimate projection
p77
F3.913523964655929
sVinclude dreamweaver mx flash
p78
F4.044079459835762
s.